
coremark.out:     формат файла elf64-littleriscv


Дизассемблирование раздела .text:

0000000000000000 <_start>:
       0:	00000197          	auipc	gp,0x0
       4:	00018193          	mv	gp,gp
       8:	00000517          	auipc	a0,0x0
       c:	00050513          	mv	a0,a0
      10:	00000617          	auipc	a2,0x0
      14:	00060613          	mv	a2,a2
      18:	8e09                	sub	a2,a2,a0
      1a:	4581                	li	a1,0
      1c:	00000097          	auipc	ra,0x0
      20:	000080e7          	jalr	ra # 1c <_start+0x1c>
      24:	00000517          	auipc	a0,0x0
      28:	00050513          	mv	a0,a0
      2c:	c909                	beqz	a0,3e <.Lweak_atexit>
      2e:	00000517          	auipc	a0,0x0
      32:	00050513          	mv	a0,a0
      36:	00000097          	auipc	ra,0x0
      3a:	000080e7          	jalr	ra # 36 <_start+0x36>

000000000000003e <.Lweak_atexit>:
      3e:	00000097          	auipc	ra,0x0
      42:	000080e7          	jalr	ra # 3e <.Lweak_atexit>
      46:	4502                	lw	a0,0(sp)
      48:	002c                	addi	a1,sp,8
      4a:	4601                	li	a2,0
      4c:	00000097          	auipc	ra,0x0
      50:	000080e7          	jalr	ra # 4c <.Lweak_atexit+0xe>
      54:	00000317          	auipc	t1,0x0
      58:	00030067          	jr	t1 # 54 <.Lweak_atexit+0x16>

000000000000005c <__do_global_dtors_aux>:
      5c:	1141                	addi	sp,sp,-16
      5e:	e022                	sd	s0,0(sp)
      60:	00000417          	auipc	s0,0x0
      64:	00040413          	mv	s0,s0
      68:	00044783          	lbu	a5,0(s0) # 60 <__do_global_dtors_aux+0x4>
      6c:	e406                	sd	ra,8(sp)
      6e:	e38d                	bnez	a5,90 <.L1>
      70:	00000797          	auipc	a5,0x0
      74:	00078793          	mv	a5,a5
      78:	cb89                	beqz	a5,8a <.L3>
      7a:	00000517          	auipc	a0,0x0
      7e:	00050513          	mv	a0,a0
      82:	00000097          	auipc	ra,0x0
      86:	000080e7          	jalr	ra # 82 <__do_global_dtors_aux+0x26>

000000000000008a <.L3>:
      8a:	4785                	li	a5,1
      8c:	00f40023          	sb	a5,0(s0)

0000000000000090 <.L1>:
      90:	60a2                	ld	ra,8(sp)
      92:	6402                	ld	s0,0(sp)
      94:	0141                	addi	sp,sp,16
      96:	8082                	ret

0000000000000098 <frame_dummy>:
      98:	00000797          	auipc	a5,0x0
      9c:	00078793          	mv	a5,a5
      a0:	cf89                	beqz	a5,ba <.L8>
      a2:	00000597          	auipc	a1,0x0
      a6:	00058593          	mv	a1,a1
      aa:	00000517          	auipc	a0,0x0
      ae:	00050513          	mv	a0,a0
      b2:	00000317          	auipc	t1,0x0
      b6:	00030067          	jr	t1 # b2 <frame_dummy+0x1a>

00000000000000ba <.L8>:
      ba:	8082                	ret

00000000000000bc <cmp_idx>:
      bc:	00060a63          	beqz	a2,d0 <.L4>
      c0:	00251503          	lh	a0,2(a0) # ac <frame_dummy+0x14>
      c4:	00259783          	lh	a5,2(a1) # a4 <frame_dummy+0xc>
      c8:	40f5053b          	subw	a0,a0,a5
      cc:	00008067          	ret

00000000000000d0 <.L4>:
      d0:	00051783          	lh	a5,0(a0)
      d4:	0107971b          	slliw	a4,a5,0x10
      d8:	0107571b          	srliw	a4,a4,0x10
      dc:	0087571b          	srliw	a4,a4,0x8
      e0:	f007f793          	andi	a5,a5,-256
      e4:	00e7e7b3          	or	a5,a5,a4
      e8:	00f51023          	sh	a5,0(a0)
      ec:	00059783          	lh	a5,0(a1)
      f0:	00251503          	lh	a0,2(a0)
      f4:	0107971b          	slliw	a4,a5,0x10
      f8:	0107571b          	srliw	a4,a4,0x10
      fc:	0087571b          	srliw	a4,a4,0x8
     100:	f007f793          	andi	a5,a5,-256
     104:	00e7e7b3          	or	a5,a5,a4
     108:	00f59023          	sh	a5,0(a1)
     10c:	00259783          	lh	a5,2(a1)
     110:	40f5053b          	subw	a0,a0,a5
     114:	00008067          	ret

0000000000000118 <calc_func>:
     118:	fd010113          	addi	sp,sp,-48
     11c:	02813023          	sd	s0,32(sp)
     120:	00051403          	lh	s0,0(a0)
     124:	02113423          	sd	ra,40(sp)
     128:	00913c23          	sd	s1,24(sp)
     12c:	4074579b          	sraiw	a5,s0,0x7
     130:	01213823          	sd	s2,16(sp)
     134:	01313423          	sd	s3,8(sp)
     138:	0017f793          	andi	a5,a5,1
     13c:	02078263          	beqz	a5,160 <.L6>
     140:	02813083          	ld	ra,40(sp)
     144:	07f47513          	andi	a0,s0,127
     148:	02013403          	ld	s0,32(sp)
     14c:	01813483          	ld	s1,24(sp)
     150:	01013903          	ld	s2,16(sp)
     154:	00813983          	ld	s3,8(sp)
     158:	03010113          	addi	sp,sp,48
     15c:	00008067          	ret

0000000000000160 <.L6>:
     160:	4034571b          	sraiw	a4,s0,0x3
     164:	00f77713          	andi	a4,a4,15
     168:	00058493          	mv	s1,a1
     16c:	00747693          	andi	a3,s0,7
     170:	00471593          	slli	a1,a4,0x4
     174:	0604d783          	lhu	a5,96(s1)
     178:	00050993          	mv	s3,a0
     17c:	00e5e5b3          	or	a1,a1,a4
     180:	04068e63          	beqz	a3,1dc <.L8>
     184:	00100713          	li	a4,1
     188:	08e68e63          	beq	a3,a4,224 <.L9>
     18c:	03041513          	slli	a0,s0,0x30
     190:	03055513          	srli	a0,a0,0x30
     194:	00040913          	mv	s2,s0

0000000000000198 <.L10>:
     198:	00078593          	mv	a1,a5
     19c:	00000097          	auipc	ra,0x0
     1a0:	000080e7          	jalr	ra # 19c <.L10+0x4>
     1a4:	00050793          	mv	a5,a0
     1a8:	f0047413          	andi	s0,s0,-256
     1ac:	07f97513          	andi	a0,s2,127
     1b0:	00856433          	or	s0,a0,s0
     1b4:	06f49023          	sh	a5,96(s1)
     1b8:	08046413          	ori	s0,s0,128
     1bc:	00899023          	sh	s0,0(s3)
     1c0:	02813083          	ld	ra,40(sp)
     1c4:	02013403          	ld	s0,32(sp)
     1c8:	01813483          	ld	s1,24(sp)
     1cc:	01013903          	ld	s2,16(sp)
     1d0:	00813983          	ld	s3,8(sp)
     1d4:	03010113          	addi	sp,sp,48
     1d8:	00008067          	ret

00000000000001dc <.L8>:
     1dc:	02200693          	li	a3,34
     1e0:	00058713          	mv	a4,a1
     1e4:	00d5d463          	bge	a1,a3,1ec <.L11>
     1e8:	02200713          	li	a4,34

00000000000001ec <.L11>:
     1ec:	00249683          	lh	a3,2(s1)
     1f0:	00049603          	lh	a2,0(s1)
     1f4:	0204b583          	ld	a1,32(s1)
     1f8:	0284a503          	lw	a0,40(s1)
     1fc:	0ff77713          	zext.b	a4,a4
     200:	00000097          	auipc	ra,0x0
     204:	000080e7          	jalr	ra # 200 <.L11+0x14>
     208:	0664d783          	lhu	a5,102(s1)
     20c:	00079463          	bnez	a5,214 <.L15>
     210:	06a49323          	sh	a0,102(s1)

0000000000000214 <.L15>:
     214:	0105191b          	slliw	s2,a0,0x10
     218:	0604d783          	lhu	a5,96(s1)
     21c:	4109591b          	sraiw	s2,s2,0x10
     220:	f79ff06f          	j	198 <.L10>

0000000000000224 <.L9>:
     224:	00078613          	mv	a2,a5
     228:	04048513          	addi	a0,s1,64
     22c:	00000097          	auipc	ra,0x0
     230:	000080e7          	jalr	ra # 22c <.L9+0x8>
     234:	0644d783          	lhu	a5,100(s1)
     238:	fc079ee3          	bnez	a5,214 <.L15>
     23c:	06a49223          	sh	a0,100(s1)
     240:	fd5ff06f          	j	214 <.L15>

0000000000000244 <cmp_complex>:
     244:	fe010113          	addi	sp,sp,-32
     248:	00913423          	sd	s1,8(sp)
     24c:	00058493          	mv	s1,a1
     250:	00060593          	mv	a1,a2
     254:	00113c23          	sd	ra,24(sp)
     258:	00813823          	sd	s0,16(sp)
     25c:	00060413          	mv	s0,a2
     260:	00000097          	auipc	ra,0x0
     264:	000080e7          	jalr	ra # 260 <cmp_complex+0x1c>
     268:	00050793          	mv	a5,a0
     26c:	00040593          	mv	a1,s0
     270:	00048513          	mv	a0,s1
     274:	00078413          	mv	s0,a5
     278:	00000097          	auipc	ra,0x0
     27c:	000080e7          	jalr	ra # 278 <cmp_complex+0x34>
     280:	01813083          	ld	ra,24(sp)
     284:	40a4053b          	subw	a0,s0,a0
     288:	01013403          	ld	s0,16(sp)
     28c:	00813483          	ld	s1,8(sp)
     290:	02010113          	addi	sp,sp,32
     294:	00008067          	ret

0000000000000298 <copy_info>:
     298:	00059703          	lh	a4,0(a1)
     29c:	00259783          	lh	a5,2(a1)
     2a0:	00e51023          	sh	a4,0(a0)
     2a4:	00f51123          	sh	a5,2(a0)
     2a8:	00008067          	ret

00000000000002ac <core_list_insert_new>:
     2ac:	00063803          	ld	a6,0(a2) # 10 <_start+0x10>
     2b0:	01080893          	addi	a7,a6,16
     2b4:	04e8f663          	bgeu	a7,a4,300 <.L23>
     2b8:	0006b703          	ld	a4,0(a3)
     2bc:	00470313          	addi	t1,a4,4
     2c0:	04f37063          	bgeu	t1,a5,300 <.L23>
     2c4:	01163023          	sd	a7,0(a2)
     2c8:	00053783          	ld	a5,0(a0)
     2cc:	00059883          	lh	a7,0(a1)
     2d0:	00259603          	lh	a2,2(a1)
     2d4:	00f83023          	sd	a5,0(a6)
     2d8:	01053023          	sd	a6,0(a0)
     2dc:	00e83423          	sd	a4,8(a6)
     2e0:	0006b783          	ld	a5,0(a3)
     2e4:	00080513          	mv	a0,a6
     2e8:	00478793          	addi	a5,a5,4 # 9c <frame_dummy+0x4>
     2ec:	00f6b023          	sd	a5,0(a3)
     2f0:	00883783          	ld	a5,8(a6)
     2f4:	01179023          	sh	a7,0(a5)
     2f8:	00c79123          	sh	a2,2(a5)
     2fc:	00008067          	ret

0000000000000300 <.L23>:
     300:	00000813          	li	a6,0
     304:	00080513          	mv	a0,a6
     308:	00008067          	ret

000000000000030c <core_list_remove>:
     30c:	00050793          	mv	a5,a0
     310:	00053503          	ld	a0,0(a0)
     314:	0087b683          	ld	a3,8(a5)
     318:	00853603          	ld	a2,8(a0)
     31c:	00053703          	ld	a4,0(a0)
     320:	00c7b423          	sd	a2,8(a5)
     324:	00d53423          	sd	a3,8(a0)
     328:	00e7b023          	sd	a4,0(a5)
     32c:	00053023          	sd	zero,0(a0)
     330:	00008067          	ret

0000000000000334 <core_list_undo_remove>:
     334:	0085b603          	ld	a2,8(a1)
     338:	00853683          	ld	a3,8(a0)
     33c:	0005b703          	ld	a4,0(a1)
     340:	00c53423          	sd	a2,8(a0)
     344:	00d5b423          	sd	a3,8(a1)
     348:	00e53023          	sd	a4,0(a0)
     34c:	00a5b023          	sd	a0,0(a1)
     350:	00008067          	ret

0000000000000354 <core_list_find>:
     354:	00259703          	lh	a4,2(a1)
     358:	02074263          	bltz	a4,37c <.L39>
     35c:	00051863          	bnez	a0,36c <.L30>
     360:	0480006f          	j	3a8 <.L40>

0000000000000364 <.L31>:
     364:	00053503          	ld	a0,0(a0)
     368:	02050c63          	beqz	a0,3a0 <.L34>

000000000000036c <.L30>:
     36c:	00853783          	ld	a5,8(a0)
     370:	00279783          	lh	a5,2(a5)
     374:	fee798e3          	bne	a5,a4,364 <.L31>
     378:	00008067          	ret

000000000000037c <.L39>:
     37c:	02050263          	beqz	a0,3a0 <.L34>
     380:	00059703          	lh	a4,0(a1)
     384:	00c0006f          	j	390 <.L29>

0000000000000388 <.L32>:
     388:	00053503          	ld	a0,0(a0)
     38c:	00050c63          	beqz	a0,3a4 <.L26>

0000000000000390 <.L29>:
     390:	00853783          	ld	a5,8(a0)
     394:	0007c783          	lbu	a5,0(a5)
     398:	fee798e3          	bne	a5,a4,388 <.L32>
     39c:	00008067          	ret

00000000000003a0 <.L34>:
     3a0:	00000513          	li	a0,0

00000000000003a4 <.L26>:
     3a4:	00008067          	ret

00000000000003a8 <.L40>:
     3a8:	00008067          	ret

00000000000003ac <core_list_reverse>:
     3ac:	02050063          	beqz	a0,3cc <.L42>
     3b0:	00000713          	li	a4,0
     3b4:	0080006f          	j	3bc <.L43>

00000000000003b8 <.L44>:
     3b8:	00078513          	mv	a0,a5

00000000000003bc <.L43>:
     3bc:	00053783          	ld	a5,0(a0)
     3c0:	00e53023          	sd	a4,0(a0)
     3c4:	00050713          	mv	a4,a0
     3c8:	fe0798e3          	bnez	a5,3b8 <.L44>

00000000000003cc <.L42>:
     3cc:	00008067          	ret

00000000000003d0 <core_list_mergesort>:
     3d0:	fa010113          	addi	sp,sp,-96
     3d4:	03313c23          	sd	s3,56(sp)
     3d8:	03513423          	sd	s5,40(sp)
     3dc:	01713c23          	sd	s7,24(sp)
     3e0:	01813823          	sd	s8,16(sp)
     3e4:	01a13023          	sd	s10,0(sp)
     3e8:	04113c23          	sd	ra,88(sp)
     3ec:	04813823          	sd	s0,80(sp)
     3f0:	04913423          	sd	s1,72(sp)
     3f4:	05213023          	sd	s2,64(sp)
     3f8:	03413823          	sd	s4,48(sp)
     3fc:	03613023          	sd	s6,32(sp)
     400:	01913423          	sd	s9,8(sp)
     404:	00050993          	mv	s3,a0
     408:	00058c13          	mv	s8,a1
     40c:	00060b93          	mv	s7,a2
     410:	00100a93          	li	s5,1
     414:	00100d13          	li	s10,1
     418:	0c098263          	beqz	s3,4dc <.L49>

000000000000041c <.L79>:
     41c:	00000c93          	li	s9,0
     420:	00000493          	li	s1,0
     424:	00000b13          	li	s6,0

0000000000000428 <.L63>:
     428:	001c8c9b          	addiw	s9,s9,1
     42c:	00098793          	mv	a5,s3
     430:	00000413          	li	s0,0

0000000000000434 <.L52>:
     434:	0007b783          	ld	a5,0(a5)
     438:	0014041b          	addiw	s0,s0,1
     43c:	00078463          	beqz	a5,444 <.L53>
     440:	fe8a9ae3          	bne	s5,s0,434 <.L52>

0000000000000444 <.L53>:
     444:	00098913          	mv	s2,s3
     448:	000a8a13          	mv	s4,s5
     44c:	00078993          	mv	s3,a5
     450:	02805263          	blez	s0,474 <.L75>

0000000000000454 <.L59>:
     454:	040a1463          	bnez	s4,49c <.L76>

0000000000000458 <.L74>:
     458:	00090793          	mv	a5,s2
     45c:	00093903          	ld	s2,0(s2)
     460:	fff4041b          	addiw	s0,s0,-1

0000000000000464 <.L55>:
     464:	02048663          	beqz	s1,490 <.L66>

0000000000000468 <.L77>:
     468:	00f4b023          	sd	a5,0(s1)
     46c:	00078493          	mv	s1,a5

0000000000000470 <.L78>:
     470:	fe8042e3          	bgtz	s0,454 <.L59>

0000000000000474 <.L75>:
     474:	05405863          	blez	s4,4c4 <.L60>
     478:	04098863          	beqz	s3,4c8 <.L62>
     47c:	02041263          	bnez	s0,4a0 <.L54>
     480:	00098793          	mv	a5,s3
     484:	fffa0a1b          	addiw	s4,s4,-1
     488:	0009b983          	ld	s3,0(s3)
     48c:	fc049ee3          	bnez	s1,468 <.L77>

0000000000000490 <.L66>:
     490:	00078b13          	mv	s6,a5
     494:	00078493          	mv	s1,a5
     498:	fd9ff06f          	j	470 <.L78>

000000000000049c <.L76>:
     49c:	fa098ee3          	beqz	s3,458 <.L74>

00000000000004a0 <.L54>:
     4a0:	0089b583          	ld	a1,8(s3)
     4a4:	00893503          	ld	a0,8(s2)
     4a8:	000b8613          	mv	a2,s7
     4ac:	000c00e7          	jalr	s8
     4b0:	faa054e3          	blez	a0,458 <.L74>
     4b4:	00098793          	mv	a5,s3
     4b8:	fffa0a1b          	addiw	s4,s4,-1
     4bc:	0009b983          	ld	s3,0(s3)
     4c0:	fa5ff06f          	j	464 <.L55>

00000000000004c4 <.L60>:
     4c4:	f60992e3          	bnez	s3,428 <.L63>

00000000000004c8 <.L62>:
     4c8:	0004b023          	sd	zero,0(s1)
     4cc:	01ac8c63          	beq	s9,s10,4e4 <.L72>
     4d0:	000b0993          	mv	s3,s6
     4d4:	001a9a9b          	slliw	s5,s5,0x1
     4d8:	f40992e3          	bnez	s3,41c <.L79>

00000000000004dc <.L49>:
     4dc:	00003023          	sd	zero,0(zero) # 0 <_start>
     4e0:	00100073          	ebreak

00000000000004e4 <.L72>:
     4e4:	05813083          	ld	ra,88(sp)
     4e8:	05013403          	ld	s0,80(sp)
     4ec:	04813483          	ld	s1,72(sp)
     4f0:	04013903          	ld	s2,64(sp)
     4f4:	03813983          	ld	s3,56(sp)
     4f8:	03013a03          	ld	s4,48(sp)
     4fc:	02813a83          	ld	s5,40(sp)
     500:	01813b83          	ld	s7,24(sp)
     504:	01013c03          	ld	s8,16(sp)
     508:	00813c83          	ld	s9,8(sp)
     50c:	00013d03          	ld	s10,0(sp)
     510:	000b0513          	mv	a0,s6
     514:	02013b03          	ld	s6,32(sp)
     518:	06010113          	addi	sp,sp,96
     51c:	00008067          	ret

0000000000000520 <core_bench_list>:
     520:	00451303          	lh	t1,4(a0)
     524:	fc010113          	addi	sp,sp,-64
     528:	02813823          	sd	s0,48(sp)
     52c:	03213023          	sd	s2,32(sp)
     530:	02113c23          	sd	ra,56(sp)
     534:	02913423          	sd	s1,40(sp)
     538:	01313c23          	sd	s3,24(sp)
     53c:	01413823          	sd	s4,16(sp)
     540:	01513423          	sd	s5,8(sp)
     544:	03853403          	ld	s0,56(a0)
     548:	00050613          	mv	a2,a0
     54c:	00058913          	mv	s2,a1
     550:	26605e63          	blez	t1,7cc <.L108>
     554:	00000893          	li	a7,0
     558:	00000e13          	li	t3,0
     55c:	00000813          	li	a6,0
     560:	00000513          	li	a0,0

0000000000000564 <.L95>:
     564:	0ff8fa13          	zext.b	s4,a7
     568:	1e094463          	bltz	s2,750 <.L141>
     56c:	26040663          	beqz	s0,7d8 <.L84>
     570:	00040793          	mv	a5,s0
     574:	00c0006f          	j	580 <.L85>

0000000000000578 <.L87>:
     578:	0007b783          	ld	a5,0(a5)
     57c:	00078863          	beqz	a5,58c <.L86>

0000000000000580 <.L85>:
     580:	0087b703          	ld	a4,8(a5)
     584:	00271703          	lh	a4,2(a4)
     588:	ff2718e3          	bne	a4,s2,578 <.L87>

000000000000058c <.L86>:
     58c:	00000693          	li	a3,0
     590:	0080006f          	j	598 <.L89>

0000000000000594 <.L111>:
     594:	00070413          	mv	s0,a4

0000000000000598 <.L89>:
     598:	00043703          	ld	a4,0(s0)
     59c:	00d43023          	sd	a3,0(s0)
     5a0:	00040693          	mv	a3,s0
     5a4:	fe0718e3          	bnez	a4,594 <.L111>
     5a8:	1c078663          	beqz	a5,774 <.L142>
     5ac:	0087b703          	ld	a4,8(a5)
     5b0:	00071703          	lh	a4,0(a4)
     5b4:	00177693          	andi	a3,a4,1
     5b8:	00068c63          	beqz	a3,5d0 <.L92>
     5bc:	4097571b          	sraiw	a4,a4,0x9
     5c0:	00177713          	andi	a4,a4,1
     5c4:	00a7073b          	addw	a4,a4,a0
     5c8:	03071513          	slli	a0,a4,0x30
     5cc:	03055513          	srli	a0,a0,0x30

00000000000005d0 <.L92>:
     5d0:	0007b703          	ld	a4,0(a5)
     5d4:	00070c63          	beqz	a4,5ec <.L93>
     5d8:	00073683          	ld	a3,0(a4)
     5dc:	00d7b023          	sd	a3,0(a5)
     5e0:	00043783          	ld	a5,0(s0)
     5e4:	00f73023          	sd	a5,0(a4)
     5e8:	00e43023          	sd	a4,0(s0)

00000000000005ec <.L93>:
     5ec:	0018081b          	addiw	a6,a6,1
     5f0:	03081813          	slli	a6,a6,0x30
     5f4:	03085813          	srli	a6,a6,0x30

00000000000005f8 <.L91>:
     5f8:	00094863          	bltz	s2,608 <.L94>
     5fc:	0019091b          	addiw	s2,s2,1
     600:	0109191b          	slliw	s2,s2,0x10
     604:	4109591b          	sraiw	s2,s2,0x10

0000000000000608 <.L94>:
     608:	0018889b          	addiw	a7,a7,1
     60c:	0108989b          	slliw	a7,a7,0x10
     610:	4108d89b          	sraiw	a7,a7,0x10
     614:	f51318e3          	bne	t1,a7,564 <.L95>
     618:	0028149b          	slliw	s1,a6,0x2
     61c:	41c484bb          	subw	s1,s1,t3
     620:	00a484bb          	addw	s1,s1,a0
     624:	03049493          	slli	s1,s1,0x30
     628:	0304d493          	srli	s1,s1,0x30

000000000000062c <.L81>:
     62c:	00b05e63          	blez	a1,648 <.L96>
     630:	00040513          	mv	a0,s0
     634:	00000597          	auipc	a1,0x0
     638:	00058593          	mv	a1,a1
     63c:	00000097          	auipc	ra,0x0
     640:	000080e7          	jalr	ra # 63c <.L81+0x10>
     644:	00050413          	mv	s0,a0

0000000000000648 <.L96>:
     648:	00043783          	ld	a5,0(s0)
     64c:	00040993          	mv	s3,s0
     650:	0007ba83          	ld	s5,0(a5)
     654:	0087b703          	ld	a4,8(a5)
     658:	008ab603          	ld	a2,8(s5)
     65c:	000ab683          	ld	a3,0(s5)
     660:	00c7b423          	sd	a2,8(a5)
     664:	00eab423          	sd	a4,8(s5)
     668:	00d7b023          	sd	a3,0(a5)
     66c:	000ab023          	sd	zero,0(s5)
     670:	00095863          	bgez	s2,680 <.L97>
     674:	0cc0006f          	j	740 <.L98>

0000000000000678 <.L100>:
     678:	0009b983          	ld	s3,0(s3)
     67c:	12098263          	beqz	s3,7a0 <.L99>

0000000000000680 <.L97>:
     680:	0089b783          	ld	a5,8(s3)
     684:	00279783          	lh	a5,2(a5)
     688:	ff2798e3          	bne	a5,s2,678 <.L100>

000000000000068c <.L103>:
     68c:	00843783          	ld	a5,8(s0)
     690:	00048593          	mv	a1,s1
     694:	00079503          	lh	a0,0(a5)
     698:	00000097          	auipc	ra,0x0
     69c:	000080e7          	jalr	ra # 698 <.L103+0xc>
     6a0:	0009b983          	ld	s3,0(s3)
     6a4:	00050493          	mv	s1,a0
     6a8:	fe0992e3          	bnez	s3,68c <.L103>

00000000000006ac <.L143>:
     6ac:	00043983          	ld	s3,0(s0)
     6b0:	008ab703          	ld	a4,8(s5)

00000000000006b4 <.L107>:
     6b4:	0089b683          	ld	a3,8(s3)
     6b8:	0009b783          	ld	a5,0(s3)
     6bc:	00040513          	mv	a0,s0
     6c0:	00dab423          	sd	a3,8(s5)
     6c4:	00e9b423          	sd	a4,8(s3)
     6c8:	00fab023          	sd	a5,0(s5)
     6cc:	00000613          	li	a2,0
     6d0:	0159b023          	sd	s5,0(s3)
     6d4:	00000597          	auipc	a1,0x0
     6d8:	00058593          	mv	a1,a1
     6dc:	00000097          	auipc	ra,0x0
     6e0:	000080e7          	jalr	ra # 6dc <.L107+0x28>
     6e4:	00053403          	ld	s0,0(a0)
     6e8:	00050913          	mv	s2,a0
     6ec:	02040263          	beqz	s0,710 <.L113>

00000000000006f0 <.L105>:
     6f0:	00893783          	ld	a5,8(s2)
     6f4:	00048593          	mv	a1,s1
     6f8:	00079503          	lh	a0,0(a5)
     6fc:	00000097          	auipc	ra,0x0
     700:	000080e7          	jalr	ra # 6fc <.L105+0xc>
     704:	00043403          	ld	s0,0(s0)
     708:	00050493          	mv	s1,a0
     70c:	fe0412e3          	bnez	s0,6f0 <.L105>

0000000000000710 <.L113>:
     710:	03813083          	ld	ra,56(sp)
     714:	03013403          	ld	s0,48(sp)
     718:	02013903          	ld	s2,32(sp)
     71c:	01813983          	ld	s3,24(sp)
     720:	01013a03          	ld	s4,16(sp)
     724:	00813a83          	ld	s5,8(sp)
     728:	00048513          	mv	a0,s1
     72c:	02813483          	ld	s1,40(sp)
     730:	04010113          	addi	sp,sp,64
     734:	00008067          	ret

0000000000000738 <.L102>:
     738:	0009b983          	ld	s3,0(s3)
     73c:	06098263          	beqz	s3,7a0 <.L99>

0000000000000740 <.L98>:
     740:	0089b783          	ld	a5,8(s3)
     744:	0007c783          	lbu	a5,0(a5)
     748:	fefa18e3          	bne	s4,a5,738 <.L102>
     74c:	f41ff06f          	j	68c <.L103>

0000000000000750 <.L141>:
     750:	08040463          	beqz	s0,7d8 <.L84>
     754:	00040793          	mv	a5,s0
     758:	00c0006f          	j	764 <.L83>

000000000000075c <.L88>:
     75c:	0007b783          	ld	a5,0(a5)
     760:	e20786e3          	beqz	a5,58c <.L86>

0000000000000764 <.L83>:
     764:	0087b703          	ld	a4,8(a5)
     768:	00074703          	lbu	a4,0(a4)
     76c:	feea18e3          	bne	s4,a4,75c <.L88>
     770:	e1dff06f          	j	58c <.L86>

0000000000000774 <.L142>:
     774:	00043783          	ld	a5,0(s0)
     778:	001e0e1b          	addiw	t3,t3,1
     77c:	030e1e13          	slli	t3,t3,0x30
     780:	0087b783          	ld	a5,8(a5)
     784:	030e5e13          	srli	t3,t3,0x30
     788:	00178783          	lb	a5,1(a5)
     78c:	0017f793          	andi	a5,a5,1
     790:	00a787bb          	addw	a5,a5,a0
     794:	03079513          	slli	a0,a5,0x30
     798:	03055513          	srli	a0,a0,0x30
     79c:	e5dff06f          	j	5f8 <.L91>

00000000000007a0 <.L99>:
     7a0:	00043983          	ld	s3,0(s0)
     7a4:	f00988e3          	beqz	s3,6b4 <.L107>
     7a8:	00843783          	ld	a5,8(s0)
     7ac:	00048593          	mv	a1,s1
     7b0:	00079503          	lh	a0,0(a5)
     7b4:	00000097          	auipc	ra,0x0
     7b8:	000080e7          	jalr	ra # 7b4 <.L99+0x14>
     7bc:	0009b983          	ld	s3,0(s3)
     7c0:	00050493          	mv	s1,a0
     7c4:	ec0994e3          	bnez	s3,68c <.L103>
     7c8:	ee5ff06f          	j	6ac <.L143>

00000000000007cc <.L108>:
     7cc:	00000493          	li	s1,0
     7d0:	00000a13          	li	s4,0
     7d4:	e59ff06f          	j	62c <.L81>

00000000000007d8 <.L84>:
     7d8:	00003783          	ld	a5,0(zero) # 0 <_start>
     7dc:	00100073          	ebreak

00000000000007e0 <core_list_init>:
     7e0:	01400793          	li	a5,20
     7e4:	02f55e3b          	divuw	t3,a0,a5
     7e8:	ffff87b7          	lui	a5,0xffff8
     7ec:	0005b023          	sd	zero,0(a1) # 6d4 <.L107+0x20>
     7f0:	08078713          	addi	a4,a5,128 # ffffffffffff8080 <.LLST3+0xffffffffffff22d2>
     7f4:	02058693          	addi	a3,a1,32
     7f8:	00058513          	mv	a0,a1
     7fc:	01058313          	addi	t1,a1,16
     800:	ffee0f9b          	addiw	t6,t3,-2
     804:	020f9f13          	slli	t5,t6,0x20
     808:	020f5f13          	srli	t5,t5,0x20
     80c:	004f1e93          	slli	t4,t5,0x4
     810:	01d58eb3          	add	t4,a1,t4
     814:	01d5b423          	sd	t4,8(a1)
     818:	002f1f13          	slli	t5,t5,0x2
     81c:	00ee9023          	sh	a4,0(t4)
     820:	000e9123          	sh	zero,2(t4)
     824:	000f829b          	sext.w	t0,t6
     828:	01ee8f33          	add	t5,t4,t5
     82c:	004e8713          	addi	a4,t4,4
     830:	15d6f863          	bgeu	a3,t4,980 <.L155>
     834:	008e8893          	addi	a7,t4,8
     838:	15e8f463          	bgeu	a7,t5,980 <.L155>
     83c:	00e5bc23          	sd	a4,24(a1)
     840:	0005b823          	sd	zero,16(a1)
     844:	0065b023          	sd	t1,0(a1)
     848:	fff7c793          	not	a5,a5
     84c:	fff00713          	li	a4,-1
     850:	00ee9223          	sh	a4,4(t4)
     854:	00fe9323          	sh	a5,6(t4)
     858:	12028c63          	beqz	t0,990 <.L162>

000000000000085c <.L174>:
     85c:	ff010113          	addi	sp,sp,-16
     860:	00813423          	sd	s0,8(sp)
     864:	03061393          	slli	t2,a2,0x30
     868:	ffff8437          	lui	s0,0xffff8
     86c:	0303d393          	srli	t2,t2,0x30
     870:	00000813          	li	a6,0
     874:	fff44413          	not	s0,s0

0000000000000878 <.L148>:
     878:	03081713          	slli	a4,a6,0x30
     87c:	03075713          	srli	a4,a4,0x30
     880:	00e3c7b3          	xor	a5,t2,a4
     884:	0037979b          	slliw	a5,a5,0x3
     888:	00777713          	andi	a4,a4,7
     88c:	0787f793          	andi	a5,a5,120
     890:	00e7e7b3          	or	a5,a5,a4
     894:	0087959b          	slliw	a1,a5,0x8
     898:	01068713          	addi	a4,a3,16
     89c:	0018081b          	addiw	a6,a6,1
     8a0:	00488e13          	addi	t3,a7,4
     8a4:	00b7e7b3          	or	a5,a5,a1
     8a8:	03d77463          	bgeu	a4,t4,8d0 <.L147>
     8ac:	03ee7263          	bgeu	t3,t5,8d0 <.L147>
     8b0:	0066b023          	sd	t1,0(a3)
     8b4:	00d53023          	sd	a3,0(a0)
     8b8:	0116b423          	sd	a7,8(a3)
     8bc:	00f89023          	sh	a5,0(a7)
     8c0:	00889123          	sh	s0,2(a7)
     8c4:	00068313          	mv	t1,a3
     8c8:	000e0893          	mv	a7,t3
     8cc:	00070693          	mv	a3,a4

00000000000008d0 <.L147>:
     8d0:	fb0294e3          	bne	t0,a6,878 <.L148>
     8d4:	00033803          	ld	a6,0(t1)
     8d8:	08080663          	beqz	a6,964 <.L153>
     8dc:	00500793          	li	a5,5
     8e0:	00004eb7          	lui	t4,0x4
     8e4:	02ffde3b          	divuw	t3,t6,a5
     8e8:	20000713          	li	a4,512
     8ec:	00100693          	li	a3,1
     8f0:	fffe8e93          	addi	t4,t4,-1 # 3fff <.LLST15+0x2b1>
     8f4:	0300006f          	j	924 <.L152>

00000000000008f8 <.L173>:
     8f8:	0106979b          	slliw	a5,a3,0x10
     8fc:	00083883          	ld	a7,0(a6)
     900:	4107d79b          	sraiw	a5,a5,0x10
     904:	1007071b          	addiw	a4,a4,256
     908:	03071713          	slli	a4,a4,0x30
     90c:	00f59123          	sh	a5,2(a1)
     910:	00080313          	mv	t1,a6
     914:	0016869b          	addiw	a3,a3,1
     918:	03075713          	srli	a4,a4,0x30
     91c:	04088463          	beqz	a7,964 <.L153>

0000000000000920 <.L156>:
     920:	00088813          	mv	a6,a7

0000000000000924 <.L152>:
     924:	00c6c5b3          	xor	a1,a3,a2
     928:	70077793          	andi	a5,a4,1792
     92c:	00b7e7b3          	or	a5,a5,a1
     930:	01d7f7b3          	and	a5,a5,t4
     934:	00833583          	ld	a1,8(t1)
     938:	fdc6e0e3          	bltu	a3,t3,8f8 <.L173>
     93c:	00083883          	ld	a7,0(a6)
     940:	0107979b          	slliw	a5,a5,0x10
     944:	4107d79b          	sraiw	a5,a5,0x10
     948:	1007071b          	addiw	a4,a4,256
     94c:	03071713          	slli	a4,a4,0x30
     950:	00f59123          	sh	a5,2(a1)
     954:	00080313          	mv	t1,a6
     958:	0016869b          	addiw	a3,a3,1
     95c:	03075713          	srli	a4,a4,0x30
     960:	fc0890e3          	bnez	a7,920 <.L156>

0000000000000964 <.L153>:
     964:	00813403          	ld	s0,8(sp)
     968:	00000613          	li	a2,0
     96c:	00000597          	auipc	a1,0x0
     970:	00058593          	mv	a1,a1
     974:	01010113          	addi	sp,sp,16
     978:	00000317          	auipc	t1,0x0
     97c:	00030067          	jr	t1 # 978 <.L153+0x14>

0000000000000980 <.L155>:
     980:	00030693          	mv	a3,t1
     984:	00070893          	mv	a7,a4
     988:	00000313          	li	t1,0
     98c:	ec0298e3          	bnez	t0,85c <.L174>

0000000000000990 <.L162>:
     990:	00033803          	ld	a6,0(t1)
     994:	06080863          	beqz	a6,a04 <.L164>
     998:	00500793          	li	a5,5
     99c:	00004eb7          	lui	t4,0x4
     9a0:	02ffde3b          	divuw	t3,t6,a5
     9a4:	20000713          	li	a4,512
     9a8:	00100693          	li	a3,1
     9ac:	fffe8e93          	addi	t4,t4,-1 # 3fff <.LLST15+0x2b1>
     9b0:	0300006f          	j	9e0 <.L165>

00000000000009b4 <.L175>:
     9b4:	0106979b          	slliw	a5,a3,0x10
     9b8:	4107d79b          	sraiw	a5,a5,0x10

00000000000009bc <.L168>:
     9bc:	00083883          	ld	a7,0(a6)
     9c0:	1007071b          	addiw	a4,a4,256
     9c4:	03071713          	slli	a4,a4,0x30
     9c8:	00f59123          	sh	a5,2(a1) # 96e <.L153+0xa>
     9cc:	00080313          	mv	t1,a6
     9d0:	0016869b          	addiw	a3,a3,1
     9d4:	03075713          	srli	a4,a4,0x30
     9d8:	02088663          	beqz	a7,a04 <.L164>
     9dc:	00088813          	mv	a6,a7

00000000000009e0 <.L165>:
     9e0:	00c6c5b3          	xor	a1,a3,a2
     9e4:	70077793          	andi	a5,a4,1792
     9e8:	00b7e7b3          	or	a5,a5,a1
     9ec:	01d7f7b3          	and	a5,a5,t4
     9f0:	00833583          	ld	a1,8(t1)
     9f4:	fdc6e0e3          	bltu	a3,t3,9b4 <.L175>
     9f8:	0107979b          	slliw	a5,a5,0x10
     9fc:	4107d79b          	sraiw	a5,a5,0x10
     a00:	fbdff06f          	j	9bc <.L168>

0000000000000a04 <.L164>:
     a04:	00000613          	li	a2,0
     a08:	00000597          	auipc	a1,0x0
     a0c:	00058593          	mv	a1,a1
     a10:	00000317          	auipc	t1,0x0
     a14:	00030067          	jr	t1 # a10 <.L164+0xc>

0000000000000a18 <iterate>:
     a18:	fe010113          	addi	sp,sp,-32
     a1c:	01213023          	sd	s2,0(sp)
     a20:	02c52903          	lw	s2,44(a0)
     a24:	00113c23          	sd	ra,24(sp)
     a28:	00813823          	sd	s0,16(sp)
     a2c:	00913423          	sd	s1,8(sp)
     a30:	06053023          	sd	zero,96(a0)
     a34:	04090e63          	beqz	s2,a90 <.L2>
     a38:	00050413          	mv	s0,a0
     a3c:	00000493          	li	s1,0

0000000000000a40 <.L4>:
     a40:	00100593          	li	a1,1
     a44:	00040513          	mv	a0,s0
     a48:	00000097          	auipc	ra,0x0
     a4c:	000080e7          	jalr	ra # a48 <.L4+0x8>
     a50:	06045583          	lhu	a1,96(s0) # ffffffffffff8060 <.LLST3+0xffffffffffff22b2>
     a54:	00000097          	auipc	ra,0x0
     a58:	000080e7          	jalr	ra # a54 <.L4+0x14>
     a5c:	fff00593          	li	a1,-1
     a60:	06a41023          	sh	a0,96(s0)
     a64:	00040513          	mv	a0,s0
     a68:	00000097          	auipc	ra,0x0
     a6c:	000080e7          	jalr	ra # a68 <.L4+0x28>
     a70:	06045583          	lhu	a1,96(s0)
     a74:	00000097          	auipc	ra,0x0
     a78:	000080e7          	jalr	ra # a74 <.L4+0x34>
     a7c:	06a41023          	sh	a0,96(s0)
     a80:	00049463          	bnez	s1,a88 <.L3>
     a84:	06a41123          	sh	a0,98(s0)

0000000000000a88 <.L3>:
     a88:	0014849b          	addiw	s1,s1,1
     a8c:	fa991ae3          	bne	s2,s1,a40 <.L4>

0000000000000a90 <.L2>:
     a90:	01813083          	ld	ra,24(sp)
     a94:	01013403          	ld	s0,16(sp)
     a98:	00813483          	ld	s1,8(sp)
     a9c:	00013903          	ld	s2,0(sp)
     aa0:	00000513          	li	a0,0
     aa4:	02010113          	addi	sp,sp,32
     aa8:	00008067          	ret

0000000000000aac <core_init_matrix>:
     aac:	ff010113          	addi	sp,sp,-16
     ab0:	00813423          	sd	s0,8(sp)
     ab4:	00913023          	sd	s1,0(sp)
     ab8:	00050893          	mv	a7,a0
     abc:	00061463          	bnez	a2,ac4 <.L2>
     ac0:	00100613          	li	a2,1

0000000000000ac4 <.L2>:
     ac4:	00000813          	li	a6,0
     ac8:	0e088a63          	beqz	a7,bbc <.L14>

0000000000000acc <.L3>:
     acc:	0018071b          	addiw	a4,a6,1
     ad0:	02e707bb          	mulw	a5,a4,a4
     ad4:	0008051b          	sext.w	a0,a6
     ad8:	0007081b          	sext.w	a6,a4
     adc:	0037979b          	slliw	a5,a5,0x3
     ae0:	ff17e6e3          	bltu	a5,a7,acc <.L3>
     ae4:	02a503bb          	mulw	t2,a0,a0
     ae8:	fff58593          	addi	a1,a1,-1 # a07 <.L164+0x3>
     aec:	ffc5f793          	andi	a5,a1,-4
     af0:	00478e13          	addi	t3,a5,4
     af4:	0005041b          	sext.w	s0,a0
     af8:	02039793          	slli	a5,t2,0x20
     afc:	01f7d393          	srli	t2,a5,0x1f
     b00:	007e08b3          	add	a7,t3,t2
     b04:	0c050c63          	beqz	a0,bdc <.L15>

0000000000000b08 <.L4>:
     b08:	00010eb7          	lui	t4,0x10
     b0c:	00150f1b          	addiw	t5,a0,1
     b10:	00000f93          	li	t6,0
     b14:	00100593          	li	a1,1
     b18:	fffe8e93          	addi	t4,t4,-1 # ffff <.LLST3+0xa251>

0000000000000b1c <.L6>:
     b1c:	0005829b          	sext.w	t0,a1
     b20:	000f031b          	sext.w	t1,t5

0000000000000b24 <.L7>:
     b24:	02b6063b          	mulw	a2,a2,a1
     b28:	fff5879b          	addiw	a5,a1,-1
     b2c:	02079813          	slli	a6,a5,0x20
     b30:	01f85793          	srli	a5,a6,0x1f
     b34:	03059713          	slli	a4,a1,0x30
     b38:	03075713          	srli	a4,a4,0x30
     b3c:	00f884b3          	add	s1,a7,a5
     b40:	00fe07b3          	add	a5,t3,a5
     b44:	0015859b          	addiw	a1,a1,1
     b48:	41f6581b          	sraiw	a6,a2,0x1f
     b4c:	0108581b          	srliw	a6,a6,0x10
     b50:	0106063b          	addw	a2,a2,a6
     b54:	01d67633          	and	a2,a2,t4
     b58:	4106063b          	subw	a2,a2,a6
     b5c:	00e6083b          	addw	a6,a2,a4
     b60:	03081813          	slli	a6,a6,0x30
     b64:	03085813          	srli	a6,a6,0x30
     b68:	00e8073b          	addw	a4,a6,a4
     b6c:	01049023          	sh	a6,0(s1)
     b70:	0ff77713          	zext.b	a4,a4
     b74:	00e79023          	sh	a4,0(a5)
     b78:	fa6596e3          	bne	a1,t1,b24 <.L7>
     b7c:	001f8f9b          	addiw	t6,t6,1
     b80:	005505bb          	addw	a1,a0,t0
     b84:	01e50f3b          	addw	t5,a0,t5
     b88:	f8af9ae3          	bne	t6,a0,b1c <.L6>

0000000000000b8c <.L5>:
     b8c:	007887b3          	add	a5,a7,t2
     b90:	fff78793          	addi	a5,a5,-1
     b94:	0086a023          	sw	s0,0(a3)
     b98:	ffc7f793          	andi	a5,a5,-4
     b9c:	00813403          	ld	s0,8(sp)
     ba0:	00478793          	addi	a5,a5,4
     ba4:	01c6b423          	sd	t3,8(a3)
     ba8:	0116b823          	sd	a7,16(a3)
     bac:	00f6bc23          	sd	a5,24(a3)
     bb0:	00013483          	ld	s1,0(sp)
     bb4:	01010113          	addi	sp,sp,16
     bb8:	00008067          	ret

0000000000000bbc <.L14>:
     bbc:	fff58593          	addi	a1,a1,-1
     bc0:	ffc5f893          	andi	a7,a1,-4
     bc4:	00488e13          	addi	t3,a7,4
     bc8:	fff00413          	li	s0,-1
     bcc:	00688893          	addi	a7,a7,6
     bd0:	00200393          	li	t2,2
     bd4:	fff00513          	li	a0,-1
     bd8:	f31ff06f          	j	b08 <.L4>

0000000000000bdc <.L15>:
     bdc:	00000413          	li	s0,0
     be0:	fadff06f          	j	b8c <.L5>

0000000000000be4 <matrix_sum>:
     be4:	00050e13          	mv	t3,a0
     be8:	08050663          	beqz	a0,c74 <.L22>
     bec:	00050313          	mv	t1,a0
     bf0:	00000e93          	li	t4,0
     bf4:	00000f13          	li	t5,0
     bf8:	00000513          	li	a0,0
     bfc:	00000693          	li	a3,0
     c00:	00000893          	li	a7,0

0000000000000c04 <.L21>:
     c04:	000e8713          	mv	a4,t4
     c08:	0140006f          	j	c1c <.L20>

0000000000000c0c <.L26>:
     c0c:	0107951b          	slliw	a0,a5,0x10
     c10:	0017071b          	addiw	a4,a4,1
     c14:	4105551b          	sraiw	a0,a0,0x10
     c18:	04e30463          	beq	t1,a4,c60 <.L25>

0000000000000c1c <.L20>:
     c1c:	02071793          	slli	a5,a4,0x20
     c20:	01e7d813          	srli	a6,a5,0x1e
     c24:	01058833          	add	a6,a1,a6
     c28:	00068793          	mv	a5,a3
     c2c:	00082683          	lw	a3,0(a6)
     c30:	03051513          	slli	a0,a0,0x30
     c34:	03055513          	srli	a0,a0,0x30
     c38:	00d7a7b3          	slt	a5,a5,a3
     c3c:	00d888bb          	addw	a7,a7,a3
     c40:	00a5081b          	addiw	a6,a0,10
     c44:	00a787bb          	addw	a5,a5,a0
     c48:	fd1652e3          	bge	a2,a7,c0c <.L26>
     c4c:	0108151b          	slliw	a0,a6,0x10
     c50:	0017071b          	addiw	a4,a4,1
     c54:	4105551b          	sraiw	a0,a0,0x10
     c58:	00000893          	li	a7,0
     c5c:	fce310e3          	bne	t1,a4,c1c <.L20>

0000000000000c60 <.L25>:
     c60:	001f0f1b          	addiw	t5,t5,1
     c64:	01c3033b          	addw	t1,t1,t3
     c68:	01ce8ebb          	addw	t4,t4,t3
     c6c:	f9ee1ce3          	bne	t3,t5,c04 <.L21>
     c70:	00008067          	ret

0000000000000c74 <.L22>:
     c74:	00000513          	li	a0,0
     c78:	00008067          	ret

0000000000000c7c <matrix_mul_const>:
     c7c:	04050863          	beqz	a0,ccc <.L27>
     c80:	00050893          	mv	a7,a0
     c84:	00000313          	li	t1,0
     c88:	00000e13          	li	t3,0

0000000000000c8c <.L29>:
     c8c:	00030713          	mv	a4,t1

0000000000000c90 <.L30>:
     c90:	02071793          	slli	a5,a4,0x20
     c94:	0207d793          	srli	a5,a5,0x20
     c98:	00179813          	slli	a6,a5,0x1
     c9c:	01060833          	add	a6,a2,a6
     ca0:	00081803          	lh	a6,0(a6)
     ca4:	00279793          	slli	a5,a5,0x2
     ca8:	00f587b3          	add	a5,a1,a5
     cac:	02d8083b          	mulw	a6,a6,a3
     cb0:	0017071b          	addiw	a4,a4,1
     cb4:	0107a023          	sw	a6,0(a5)
     cb8:	fce89ce3          	bne	a7,a4,c90 <.L30>
     cbc:	001e0e1b          	addiw	t3,t3,1
     cc0:	0065033b          	addw	t1,a0,t1
     cc4:	011508bb          	addw	a7,a0,a7
     cc8:	fdc512e3          	bne	a0,t3,c8c <.L29>

0000000000000ccc <.L27>:
     ccc:	00008067          	ret

0000000000000cd0 <matrix_add_const>:
     cd0:	04050663          	beqz	a0,d1c <.L35>
     cd4:	03061813          	slli	a6,a2,0x30
     cd8:	03085813          	srli	a6,a6,0x30
     cdc:	00050613          	mv	a2,a0
     ce0:	00000893          	li	a7,0
     ce4:	00000313          	li	t1,0

0000000000000ce8 <.L37>:
     ce8:	00088713          	mv	a4,a7

0000000000000cec <.L38>:
     cec:	02071693          	slli	a3,a4,0x20
     cf0:	01f6d793          	srli	a5,a3,0x1f
     cf4:	00f587b3          	add	a5,a1,a5
     cf8:	0007d683          	lhu	a3,0(a5)
     cfc:	0017071b          	addiw	a4,a4,1
     d00:	010686bb          	addw	a3,a3,a6
     d04:	00d79023          	sh	a3,0(a5)
     d08:	fee612e3          	bne	a2,a4,cec <.L38>
     d0c:	0013031b          	addiw	t1,t1,1
     d10:	011508bb          	addw	a7,a0,a7
     d14:	00c5063b          	addw	a2,a0,a2
     d18:	fc6518e3          	bne	a0,t1,ce8 <.L37>

0000000000000d1c <.L35>:
     d1c:	00008067          	ret

0000000000000d20 <matrix_mul_vect>:
     d20:	06050063          	beqz	a0,d80 <.L43>
     d24:	02051793          	slli	a5,a0,0x20
     d28:	01e7df13          	srli	t5,a5,0x1e
     d2c:	01e58f33          	add	t5,a1,t5
     d30:	00050e13          	mv	t3,a0
     d34:	00000e93          	li	t4,0

0000000000000d38 <.L46>:
     d38:	00068813          	mv	a6,a3
     d3c:	000e8713          	mv	a4,t4
     d40:	00000893          	li	a7,0

0000000000000d44 <.L45>:
     d44:	02071313          	slli	t1,a4,0x20
     d48:	01f35793          	srli	a5,t1,0x1f
     d4c:	00f607b3          	add	a5,a2,a5
     d50:	00081303          	lh	t1,0(a6)
     d54:	00079783          	lh	a5,0(a5)
     d58:	0017071b          	addiw	a4,a4,1
     d5c:	00280813          	addi	a6,a6,2
     d60:	026787bb          	mulw	a5,a5,t1
     d64:	011788bb          	addw	a7,a5,a7
     d68:	fcee1ee3          	bne	t3,a4,d44 <.L45>
     d6c:	0115a023          	sw	a7,0(a1)
     d70:	00458593          	addi	a1,a1,4
     d74:	01d50ebb          	addw	t4,a0,t4
     d78:	01c50e3b          	addw	t3,a0,t3
     d7c:	fabf1ee3          	bne	t5,a1,d38 <.L46>

0000000000000d80 <.L43>:
     d80:	00008067          	ret

0000000000000d84 <matrix_mul_matrix>:
     d84:	00058293          	mv	t0,a1
     d88:	00060313          	mv	t1,a2
     d8c:	00068893          	mv	a7,a3
     d90:	00050813          	mv	a6,a0
     d94:	00000f93          	li	t6,0
     d98:	00000393          	li	t2,0
     d9c:	08050463          	beqz	a0,e24 <.L59>

0000000000000da0 <.L51>:
     da0:	00000f13          	li	t5,0

0000000000000da4 <.L54>:
     da4:	01ff07bb          	addw	a5,t5,t6
     da8:	02079713          	slli	a4,a5,0x20
     dac:	01e75793          	srli	a5,a4,0x1e
     db0:	00f28eb3          	add	t4,t0,a5
     db4:	000f0613          	mv	a2,t5
     db8:	000f8713          	mv	a4,t6
     dbc:	00000593          	li	a1,0

0000000000000dc0 <.L53>:
     dc0:	02071693          	slli	a3,a4,0x20
     dc4:	02061e13          	slli	t3,a2,0x20
     dc8:	01f6d793          	srli	a5,a3,0x1f
     dcc:	01fe5693          	srli	a3,t3,0x1f
     dd0:	00f307b3          	add	a5,t1,a5
     dd4:	00d886b3          	add	a3,a7,a3
     dd8:	00079783          	lh	a5,0(a5)
     ddc:	00069683          	lh	a3,0(a3)
     de0:	0017071b          	addiw	a4,a4,1
     de4:	00c5063b          	addw	a2,a0,a2
     de8:	02d787bb          	mulw	a5,a5,a3
     dec:	00b785bb          	addw	a1,a5,a1
     df0:	fce818e3          	bne	a6,a4,dc0 <.L53>
     df4:	00bea023          	sw	a1,0(t4)
     df8:	001f079b          	addiw	a5,t5,1
     dfc:	00f50663          	beq	a0,a5,e08 <.L60>
     e00:	00078f13          	mv	t5,a5
     e04:	fa1ff06f          	j	da4 <.L54>

0000000000000e08 <.L60>:
     e08:	0013879b          	addiw	a5,t2,1
     e0c:	01f50fbb          	addw	t6,a0,t6
     e10:	0105083b          	addw	a6,a0,a6
     e14:	01e38663          	beq	t2,t5,e20 <.L50>
     e18:	00078393          	mv	t2,a5
     e1c:	f85ff06f          	j	da0 <.L51>

0000000000000e20 <.L50>:
     e20:	00008067          	ret

0000000000000e24 <.L59>:
     e24:	00008067          	ret

0000000000000e28 <matrix_mul_matrix_bitextract>:
     e28:	00058f93          	mv	t6,a1
     e2c:	00060313          	mv	t1,a2
     e30:	00068893          	mv	a7,a3
     e34:	00050813          	mv	a6,a0
     e38:	00000f13          	li	t5,0
     e3c:	00000293          	li	t0,0
     e40:	08050e63          	beqz	a0,edc <.L70>

0000000000000e44 <.L62>:
     e44:	00000e93          	li	t4,0

0000000000000e48 <.L65>:
     e48:	01ee87bb          	addw	a5,t4,t5
     e4c:	02079713          	slli	a4,a5,0x20
     e50:	01e75793          	srli	a5,a4,0x1e
     e54:	00ff83b3          	add	t2,t6,a5
     e58:	000e8613          	mv	a2,t4
     e5c:	000f0693          	mv	a3,t5
     e60:	00000593          	li	a1,0

0000000000000e64 <.L64>:
     e64:	02069713          	slli	a4,a3,0x20
     e68:	02061e13          	slli	t3,a2,0x20
     e6c:	01f75793          	srli	a5,a4,0x1f
     e70:	01fe5713          	srli	a4,t3,0x1f
     e74:	00f307b3          	add	a5,t1,a5
     e78:	00e88733          	add	a4,a7,a4
     e7c:	00071703          	lh	a4,0(a4)
     e80:	00079783          	lh	a5,0(a5)
     e84:	0016869b          	addiw	a3,a3,1
     e88:	00c5063b          	addw	a2,a0,a2
     e8c:	02e787bb          	mulw	a5,a5,a4
     e90:	4027d71b          	sraiw	a4,a5,0x2
     e94:	4057d79b          	sraiw	a5,a5,0x5
     e98:	00f77713          	andi	a4,a4,15
     e9c:	07f7f793          	andi	a5,a5,127
     ea0:	02f707bb          	mulw	a5,a4,a5
     ea4:	00b785bb          	addw	a1,a5,a1
     ea8:	fad81ee3          	bne	a6,a3,e64 <.L64>
     eac:	00b3a023          	sw	a1,0(t2)
     eb0:	001e879b          	addiw	a5,t4,1
     eb4:	00f50663          	beq	a0,a5,ec0 <.L71>
     eb8:	00078e93          	mv	t4,a5
     ebc:	f8dff06f          	j	e48 <.L65>

0000000000000ec0 <.L71>:
     ec0:	0012879b          	addiw	a5,t0,1
     ec4:	01e50f3b          	addw	t5,a0,t5
     ec8:	0105083b          	addw	a6,a0,a6
     ecc:	01d28663          	beq	t0,t4,ed8 <.L61>
     ed0:	00078293          	mv	t0,a5
     ed4:	f71ff06f          	j	e44 <.L62>

0000000000000ed8 <.L61>:
     ed8:	00008067          	ret

0000000000000edc <.L70>:
     edc:	00008067          	ret

0000000000000ee0 <matrix_test>:
     ee0:	fb010113          	addi	sp,sp,-80
     ee4:	04813023          	sd	s0,64(sp)
     ee8:	02913c23          	sd	s1,56(sp)
     eec:	03413023          	sd	s4,32(sp)
     ef0:	04113423          	sd	ra,72(sp)
     ef4:	03213823          	sd	s2,48(sp)
     ef8:	03313423          	sd	s3,40(sp)
     efc:	01513c23          	sd	s5,24(sp)
     f00:	01613823          	sd	s6,16(sp)
     f04:	01713423          	sd	s7,8(sp)
     f08:	01813023          	sd	s8,0(sp)
     f0c:	00058493          	mv	s1,a1
     f10:	00060a13          	mv	s4,a2
     f14:	00068413          	mv	s0,a3
     f18:	3c050063          	beqz	a0,12d8 <.L73>
     f1c:	03071993          	slli	s3,a4,0x30
     f20:	00050b93          	mv	s7,a0
     f24:	0309d993          	srli	s3,s3,0x30
     f28:	00000813          	li	a6,0
     f2c:	00000593          	li	a1,0

0000000000000f30 <.L74>:
     f30:	00080693          	mv	a3,a6

0000000000000f34 <.L75>:
     f34:	02069613          	slli	a2,a3,0x20
     f38:	01f65793          	srli	a5,a2,0x1f
     f3c:	00fa07b3          	add	a5,s4,a5
     f40:	0007d603          	lhu	a2,0(a5)
     f44:	0016869b          	addiw	a3,a3,1
     f48:	0136063b          	addw	a2,a2,s3
     f4c:	00c79023          	sh	a2,0(a5)
     f50:	fed512e3          	bne	a0,a3,f34 <.L75>
     f54:	0015889b          	addiw	a7,a1,1
     f58:	010b883b          	addw	a6,s7,a6
     f5c:	00ab853b          	addw	a0,s7,a0
     f60:	011b8663          	beq	s7,a7,f6c <.L76>
     f64:	00088593          	mv	a1,a7
     f68:	fc9ff06f          	j	f30 <.L74>

0000000000000f6c <.L76>:
     f6c:	000b8813          	mv	a6,s7
     f70:	00000313          	li	t1,0
     f74:	00000e13          	li	t3,0

0000000000000f78 <.L78>:
     f78:	00030693          	mv	a3,t1

0000000000000f7c <.L77>:
     f7c:	02069793          	slli	a5,a3,0x20
     f80:	0207d793          	srli	a5,a5,0x20
     f84:	00179613          	slli	a2,a5,0x1
     f88:	00ca0633          	add	a2,s4,a2
     f8c:	00061603          	lh	a2,0(a2)
     f90:	00279793          	slli	a5,a5,0x2
     f94:	00f487b3          	add	a5,s1,a5
     f98:	02e6063b          	mulw	a2,a2,a4
     f9c:	0016869b          	addiw	a3,a3,1
     fa0:	00c7a023          	sw	a2,0(a5)
     fa4:	fd069ce3          	bne	a3,a6,f7c <.L77>
     fa8:	001e079b          	addiw	a5,t3,1
     fac:	0068833b          	addw	t1,a7,t1
     fb0:	0116883b          	addw	a6,a3,a7
     fb4:	00be0663          	beq	t3,a1,fc0 <.L114>
     fb8:	00078e13          	mv	t3,a5
     fbc:	fbdff06f          	j	f78 <.L78>

0000000000000fc0 <.L114>:
     fc0:	fffff7b7          	lui	a5,0xfffff
     fc4:	00f76933          	or	s2,a4,a5
     fc8:	00088313          	mv	t1,a7
     fcc:	00000e13          	li	t3,0
     fd0:	00000513          	li	a0,0
     fd4:	00000693          	li	a3,0
     fd8:	00000813          	li	a6,0
     fdc:	00000e93          	li	t4,0

0000000000000fe0 <.L79>:
     fe0:	000e0713          	mv	a4,t3
     fe4:	0180006f          	j	ffc <.L82>

0000000000000fe8 <.L116>:
     fe8:	0107951b          	slliw	a0,a5,0x10
     fec:	0017071b          	addiw	a4,a4,1
     ff0:	4105551b          	sraiw	a0,a0,0x10
     ff4:	00070793          	mv	a5,a4
     ff8:	04670663          	beq	a4,t1,1044 <.L115>

0000000000000ffc <.L82>:
     ffc:	02071793          	slli	a5,a4,0x20
    1000:	01e7d613          	srli	a2,a5,0x1e
    1004:	00c48633          	add	a2,s1,a2
    1008:	00068793          	mv	a5,a3
    100c:	00062683          	lw	a3,0(a2)
    1010:	03051513          	slli	a0,a0,0x30
    1014:	03055513          	srli	a0,a0,0x30
    1018:	00d7a7b3          	slt	a5,a5,a3
    101c:	00d8083b          	addw	a6,a6,a3
    1020:	00a5061b          	addiw	a2,a0,10
    1024:	00a787bb          	addw	a5,a5,a0
    1028:	fd0950e3          	bge	s2,a6,fe8 <.L116>
    102c:	0106151b          	slliw	a0,a2,0x10
    1030:	0017071b          	addiw	a4,a4,1
    1034:	4105551b          	sraiw	a0,a0,0x10
    1038:	00000813          	li	a6,0
    103c:	00070793          	mv	a5,a4
    1040:	fa671ee3          	bne	a4,t1,ffc <.L82>

0000000000001044 <.L115>:
    1044:	001e871b          	addiw	a4,t4,1
    1048:	0117833b          	addw	t1,a5,a7
    104c:	011e0e3b          	addw	t3,t3,a7
    1050:	01d58663          	beq	a1,t4,105c <.L117>
    1054:	00070e93          	mv	t4,a4
    1058:	f89ff06f          	j	fe0 <.L79>

000000000000105c <.L117>:
    105c:	00000593          	li	a1,0
    1060:	00000097          	auipc	ra,0x0
    1064:	000080e7          	jalr	ra # 1060 <.L117+0x4>
    1068:	00040693          	mv	a3,s0
    106c:	00048593          	mv	a1,s1
    1070:	00050b13          	mv	s6,a0
    1074:	000a0613          	mv	a2,s4
    1078:	000b8513          	mv	a0,s7
    107c:	00000097          	auipc	ra,0x0
    1080:	000080e7          	jalr	ra # 107c <.L117+0x20>
    1084:	00000a93          	li	s5,0
    1088:	000b8813          	mv	a6,s7
    108c:	00000893          	li	a7,0
    1090:	00000513          	li	a0,0
    1094:	00000693          	li	a3,0
    1098:	00000593          	li	a1,0

000000000000109c <.L87>:
    109c:	00088713          	mv	a4,a7
    10a0:	0140006f          	j	10b4 <.L86>

00000000000010a4 <.L119>:
    10a4:	0107951b          	slliw	a0,a5,0x10
    10a8:	0017071b          	addiw	a4,a4,1
    10ac:	4105551b          	sraiw	a0,a0,0x10
    10b0:	05070463          	beq	a4,a6,10f8 <.L118>

00000000000010b4 <.L86>:
    10b4:	02071793          	slli	a5,a4,0x20
    10b8:	01e7d613          	srli	a2,a5,0x1e
    10bc:	00c48633          	add	a2,s1,a2
    10c0:	00068793          	mv	a5,a3
    10c4:	00062683          	lw	a3,0(a2)
    10c8:	03051513          	slli	a0,a0,0x30
    10cc:	03055513          	srli	a0,a0,0x30
    10d0:	00d7a7b3          	slt	a5,a5,a3
    10d4:	00d585bb          	addw	a1,a1,a3
    10d8:	00a5061b          	addiw	a2,a0,10
    10dc:	00a787bb          	addw	a5,a5,a0
    10e0:	fcb952e3          	bge	s2,a1,10a4 <.L119>
    10e4:	0106151b          	slliw	a0,a2,0x10
    10e8:	0017071b          	addiw	a4,a4,1
    10ec:	4105551b          	sraiw	a0,a0,0x10
    10f0:	00000593          	li	a1,0
    10f4:	fd0710e3          	bne	a4,a6,10b4 <.L86>

00000000000010f8 <.L118>:
    10f8:	001a8c1b          	addiw	s8,s5,1
    10fc:	0177083b          	addw	a6,a4,s7
    1100:	011b88bb          	addw	a7,s7,a7
    1104:	018b8663          	beq	s7,s8,1110 <.L120>
    1108:	000c0a93          	mv	s5,s8
    110c:	f91ff06f          	j	109c <.L87>

0000000000001110 <.L120>:
    1110:	000b0593          	mv	a1,s6
    1114:	00000097          	auipc	ra,0x0
    1118:	000080e7          	jalr	ra # 1114 <.L120+0x4>
    111c:	00040693          	mv	a3,s0
    1120:	00048593          	mv	a1,s1
    1124:	00050b13          	mv	s6,a0
    1128:	000a0613          	mv	a2,s4
    112c:	000c0513          	mv	a0,s8
    1130:	00000097          	auipc	ra,0x0
    1134:	000080e7          	jalr	ra # 1130 <.L120+0x20>
    1138:	000c0813          	mv	a6,s8
    113c:	00000893          	li	a7,0
    1140:	00000513          	li	a0,0
    1144:	00000693          	li	a3,0
    1148:	00000593          	li	a1,0
    114c:	00000313          	li	t1,0

0000000000001150 <.L91>:
    1150:	00088713          	mv	a4,a7
    1154:	0180006f          	j	116c <.L90>

0000000000001158 <.L122>:
    1158:	0107951b          	slliw	a0,a5,0x10
    115c:	0017071b          	addiw	a4,a4,1
    1160:	4105551b          	sraiw	a0,a0,0x10
    1164:	00070793          	mv	a5,a4
    1168:	05070663          	beq	a4,a6,11b4 <.L121>

000000000000116c <.L90>:
    116c:	02071793          	slli	a5,a4,0x20
    1170:	01e7d613          	srli	a2,a5,0x1e
    1174:	00c48633          	add	a2,s1,a2
    1178:	00068793          	mv	a5,a3
    117c:	00062683          	lw	a3,0(a2)
    1180:	03051513          	slli	a0,a0,0x30
    1184:	03055513          	srli	a0,a0,0x30
    1188:	00d7a7b3          	slt	a5,a5,a3
    118c:	00b685bb          	addw	a1,a3,a1
    1190:	00a5061b          	addiw	a2,a0,10
    1194:	00a787bb          	addw	a5,a5,a0
    1198:	fcb950e3          	bge	s2,a1,1158 <.L122>
    119c:	0106151b          	slliw	a0,a2,0x10
    11a0:	0017071b          	addiw	a4,a4,1
    11a4:	4105551b          	sraiw	a0,a0,0x10
    11a8:	00000593          	li	a1,0
    11ac:	00070793          	mv	a5,a4
    11b0:	fb071ee3          	bne	a4,a6,116c <.L90>

00000000000011b4 <.L121>:
    11b4:	0013071b          	addiw	a4,t1,1
    11b8:	0187883b          	addw	a6,a5,s8
    11bc:	011c08bb          	addw	a7,s8,a7
    11c0:	006a8663          	beq	s5,t1,11cc <.L123>
    11c4:	00070313          	mv	t1,a4
    11c8:	f89ff06f          	j	1150 <.L91>

00000000000011cc <.L123>:
    11cc:	000b0593          	mv	a1,s6
    11d0:	00000097          	auipc	ra,0x0
    11d4:	000080e7          	jalr	ra # 11d0 <.L123+0x4>
    11d8:	00050793          	mv	a5,a0
    11dc:	00040693          	mv	a3,s0
    11e0:	00048593          	mv	a1,s1
    11e4:	000c0513          	mv	a0,s8
    11e8:	000a0613          	mv	a2,s4
    11ec:	00078413          	mv	s0,a5
    11f0:	00000097          	auipc	ra,0x0
    11f4:	000080e7          	jalr	ra # 11f0 <.L123+0x24>
    11f8:	000c0813          	mv	a6,s8
    11fc:	00000893          	li	a7,0
    1200:	00000513          	li	a0,0
    1204:	00000693          	li	a3,0
    1208:	00000593          	li	a1,0
    120c:	00000313          	li	t1,0

0000000000001210 <.L95>:
    1210:	00088713          	mv	a4,a7
    1214:	0140006f          	j	1228 <.L94>

0000000000001218 <.L125>:
    1218:	0107951b          	slliw	a0,a5,0x10
    121c:	0017071b          	addiw	a4,a4,1
    1220:	4105551b          	sraiw	a0,a0,0x10
    1224:	04e80463          	beq	a6,a4,126c <.L124>

0000000000001228 <.L94>:
    1228:	02071793          	slli	a5,a4,0x20
    122c:	01e7d613          	srli	a2,a5,0x1e
    1230:	00c48633          	add	a2,s1,a2
    1234:	00068793          	mv	a5,a3
    1238:	00062683          	lw	a3,0(a2)
    123c:	03051513          	slli	a0,a0,0x30
    1240:	03055513          	srli	a0,a0,0x30
    1244:	00d7a7b3          	slt	a5,a5,a3
    1248:	00b685bb          	addw	a1,a3,a1
    124c:	00a5061b          	addiw	a2,a0,10
    1250:	00a787bb          	addw	a5,a5,a0
    1254:	fcb952e3          	bge	s2,a1,1218 <.L125>
    1258:	0106151b          	slliw	a0,a2,0x10
    125c:	0017071b          	addiw	a4,a4,1
    1260:	4105551b          	sraiw	a0,a0,0x10
    1264:	00000593          	li	a1,0
    1268:	fce810e3          	bne	a6,a4,1228 <.L94>

000000000000126c <.L124>:
    126c:	0013079b          	addiw	a5,t1,1
    1270:	010c083b          	addw	a6,s8,a6
    1274:	011c08bb          	addw	a7,s8,a7
    1278:	006a8663          	beq	s5,t1,1284 <.L126>
    127c:	00078313          	mv	t1,a5
    1280:	f91ff06f          	j	1210 <.L95>

0000000000001284 <.L126>:
    1284:	00040593          	mv	a1,s0
    1288:	00000097          	auipc	ra,0x0
    128c:	000080e7          	jalr	ra # 1288 <.L126+0x4>
    1290:	000c0613          	mv	a2,s8
    1294:	00000593          	li	a1,0
    1298:	00000813          	li	a6,0

000000000000129c <.L96>:
    129c:	00058713          	mv	a4,a1

00000000000012a0 <.L97>:
    12a0:	02071693          	slli	a3,a4,0x20
    12a4:	01f6d793          	srli	a5,a3,0x1f
    12a8:	00fa07b3          	add	a5,s4,a5
    12ac:	0007d683          	lhu	a3,0(a5) # fffffffffffff000 <.LLST3+0xffffffffffff9252>
    12b0:	0017071b          	addiw	a4,a4,1
    12b4:	413686bb          	subw	a3,a3,s3
    12b8:	00d79023          	sh	a3,0(a5)
    12bc:	fec712e3          	bne	a4,a2,12a0 <.L97>
    12c0:	0018079b          	addiw	a5,a6,1
    12c4:	00bc05bb          	addw	a1,s8,a1
    12c8:	00cc063b          	addw	a2,s8,a2
    12cc:	0b0a8063          	beq	s5,a6,136c <.L98>
    12d0:	00078813          	mv	a6,a5
    12d4:	fc9ff06f          	j	129c <.L96>

00000000000012d8 <.L73>:
    12d8:	00000593          	li	a1,0
    12dc:	00000097          	auipc	ra,0x0
    12e0:	000080e7          	jalr	ra # 12dc <.L73+0x4>
    12e4:	00040693          	mv	a3,s0
    12e8:	00050913          	mv	s2,a0
    12ec:	000a0613          	mv	a2,s4
    12f0:	00000513          	li	a0,0
    12f4:	00048593          	mv	a1,s1
    12f8:	00000097          	auipc	ra,0x0
    12fc:	000080e7          	jalr	ra # 12f8 <.L73+0x20>
    1300:	00090593          	mv	a1,s2
    1304:	00000513          	li	a0,0
    1308:	00000097          	auipc	ra,0x0
    130c:	000080e7          	jalr	ra # 1308 <.L73+0x30>
    1310:	00040693          	mv	a3,s0
    1314:	000a0613          	mv	a2,s4
    1318:	00050913          	mv	s2,a0
    131c:	00048593          	mv	a1,s1
    1320:	00000513          	li	a0,0
    1324:	00000097          	auipc	ra,0x0
    1328:	000080e7          	jalr	ra # 1324 <.L73+0x4c>
    132c:	00090593          	mv	a1,s2
    1330:	00000513          	li	a0,0
    1334:	00000097          	auipc	ra,0x0
    1338:	000080e7          	jalr	ra # 1334 <.L73+0x5c>
    133c:	00050793          	mv	a5,a0
    1340:	00040693          	mv	a3,s0
    1344:	00000513          	li	a0,0
    1348:	00048593          	mv	a1,s1
    134c:	000a0613          	mv	a2,s4
    1350:	00078413          	mv	s0,a5
    1354:	00000097          	auipc	ra,0x0
    1358:	000080e7          	jalr	ra # 1354 <.L73+0x7c>
    135c:	00040593          	mv	a1,s0
    1360:	00000513          	li	a0,0
    1364:	00000097          	auipc	ra,0x0
    1368:	000080e7          	jalr	ra # 1364 <.L73+0x8c>

000000000000136c <.L98>:
    136c:	04813083          	ld	ra,72(sp)
    1370:	04013403          	ld	s0,64(sp)
    1374:	0105151b          	slliw	a0,a0,0x10
    1378:	03813483          	ld	s1,56(sp)
    137c:	03013903          	ld	s2,48(sp)
    1380:	02813983          	ld	s3,40(sp)
    1384:	02013a03          	ld	s4,32(sp)
    1388:	01813a83          	ld	s5,24(sp)
    138c:	01013b03          	ld	s6,16(sp)
    1390:	00813b83          	ld	s7,8(sp)
    1394:	00013c03          	ld	s8,0(sp)
    1398:	4105551b          	sraiw	a0,a0,0x10
    139c:	05010113          	addi	sp,sp,80
    13a0:	00008067          	ret

00000000000013a4 <core_bench_matrix>:
    13a4:	ff010113          	addi	sp,sp,-16
    13a8:	00813023          	sd	s0,0(sp)
    13ac:	01053683          	ld	a3,16(a0)
    13b0:	00060413          	mv	s0,a2
    13b4:	00058713          	mv	a4,a1
    13b8:	00853603          	ld	a2,8(a0)
    13bc:	01853583          	ld	a1,24(a0)
    13c0:	00052503          	lw	a0,0(a0)
    13c4:	00113423          	sd	ra,8(sp)
    13c8:	00000097          	auipc	ra,0x0
    13cc:	000080e7          	jalr	ra # 13c8 <core_bench_matrix+0x24>
    13d0:	00040593          	mv	a1,s0
    13d4:	00013403          	ld	s0,0(sp)
    13d8:	00813083          	ld	ra,8(sp)
    13dc:	01010113          	addi	sp,sp,16
    13e0:	00000317          	auipc	t1,0x0
    13e4:	00030067          	jr	t1 # 13e0 <core_bench_matrix+0x3c>

00000000000013e8 <core_init_state>:
    13e8:	fff5089b          	addiw	a7,a0,-1
    13ec:	00100793          	li	a5,1
    13f0:	1917fa63          	bgeu	a5,a7,1584 <.L12>
    13f4:	0015859b          	addiw	a1,a1,1
    13f8:	03059813          	slli	a6,a1,0x30
    13fc:	03085813          	srli	a6,a6,0x30
    1400:	00385793          	srli	a5,a6,0x3
    1404:	00700e93          	li	t4,7
    1408:	00787593          	andi	a1,a6,7
    140c:	00000713          	li	a4,0
    1410:	00000f17          	auipc	t5,0x0
    1414:	000f0f13          	mv	t5,t5
    1418:	00400e13          	li	t3,4
    141c:	00100313          	li	t1,1
    1420:	02c00f93          	li	t6,44
    1424:	0037f793          	andi	a5,a5,3
    1428:	13d58463          	beq	a1,t4,1550 <.L18>
    142c:	14be6263          	bltu	t3,a1,1570 <.L20>
    1430:	ffd5869b          	addiw	a3,a1,-3
    1434:	03069693          	slli	a3,a3,0x30
    1438:	00379793          	slli	a5,a5,0x3
    143c:	0306d693          	srli	a3,a3,0x30
    1440:	00ff07b3          	add	a5,t5,a5
    1444:	12d36063          	bltu	t1,a3,1564 <.L34>
    1448:	0207b783          	ld	a5,32(a5)
    144c:	00800593          	li	a1,8

0000000000001450 <.L23>:
    1450:	0017069b          	addiw	a3,a4,1
    1454:	00b683bb          	addw	t2,a3,a1
    1458:	1513fc63          	bgeu	t2,a7,15b0 <.L35>
    145c:	ff010113          	addi	sp,sp,-16
    1460:	00813423          	sd	s0,8(sp)

0000000000001464 <.L24>:
    1464:	02071713          	slli	a4,a4,0x20
    1468:	02059413          	slli	s0,a1,0x20
    146c:	02075713          	srli	a4,a4,0x20
    1470:	00e606b3          	add	a3,a2,a4
    1474:	02045413          	srli	s0,s0,0x20
    1478:	00b785b3          	add	a1,a5,a1

000000000000147c <.L4>:
    147c:	0007c283          	lbu	t0,0(a5)
    1480:	00178793          	addi	a5,a5,1
    1484:	00168693          	addi	a3,a3,1
    1488:	fe568fa3          	sb	t0,-1(a3)
    148c:	fef598e3          	bne	a1,a5,147c <.L4>
    1490:	0018081b          	addiw	a6,a6,1
    1494:	00860433          	add	s0,a2,s0
    1498:	03081813          	slli	a6,a6,0x30
    149c:	00e40433          	add	s0,s0,a4
    14a0:	03085813          	srli	a6,a6,0x30
    14a4:	00385793          	srli	a5,a6,0x3
    14a8:	01f40023          	sb	t6,0(s0)
    14ac:	00787593          	andi	a1,a6,7
    14b0:	00038713          	mv	a4,t2
    14b4:	0037f793          	andi	a5,a5,3
    14b8:	09d58263          	beq	a1,t4,153c <.L5>
    14bc:	06be6663          	bltu	t3,a1,1528 <.L6>
    14c0:	ffd5869b          	addiw	a3,a1,-3
    14c4:	03069693          	slli	a3,a3,0x30
    14c8:	00379793          	slli	a5,a5,0x3
    14cc:	0306d693          	srli	a3,a3,0x30
    14d0:	00ff07b3          	add	a5,t5,a5
    14d4:	04d36463          	bltu	t1,a3,151c <.L36>
    14d8:	0207b783          	ld	a5,32(a5)
    14dc:	00800593          	li	a1,8

00000000000014e0 <.L8>:
    14e0:	0017069b          	addiw	a3,a4,1
    14e4:	00b683bb          	addw	t2,a3,a1
    14e8:	f713eee3          	bltu	t2,a7,1464 <.L24>
    14ec:	00a76663          	bltu	a4,a0,14f8 <.L10>
    14f0:	0200006f          	j	1510 <.L1>

00000000000014f4 <.L37>:
    14f4:	0017069b          	addiw	a3,a4,1

00000000000014f8 <.L10>:
    14f8:	02071793          	slli	a5,a4,0x20
    14fc:	0207d793          	srli	a5,a5,0x20
    1500:	00f607b3          	add	a5,a2,a5
    1504:	0006871b          	sext.w	a4,a3
    1508:	00078023          	sb	zero,0(a5)
    150c:	fea764e3          	bltu	a4,a0,14f4 <.L37>

0000000000001510 <.L1>:
    1510:	00813403          	ld	s0,8(sp)
    1514:	01010113          	addi	sp,sp,16
    1518:	00008067          	ret

000000000000151c <.L36>:
    151c:	0007b783          	ld	a5,0(a5)
    1520:	00400593          	li	a1,4
    1524:	fbdff06f          	j	14e0 <.L8>

0000000000001528 <.L6>:
    1528:	00379793          	slli	a5,a5,0x3
    152c:	00ff07b3          	add	a5,t5,a5
    1530:	0407b783          	ld	a5,64(a5)
    1534:	00800593          	li	a1,8
    1538:	fa9ff06f          	j	14e0 <.L8>

000000000000153c <.L5>:
    153c:	00379793          	slli	a5,a5,0x3
    1540:	00ff07b3          	add	a5,t5,a5
    1544:	0607b783          	ld	a5,96(a5)
    1548:	00800593          	li	a1,8
    154c:	f95ff06f          	j	14e0 <.L8>

0000000000001550 <.L18>:
    1550:	00379793          	slli	a5,a5,0x3
    1554:	00ff07b3          	add	a5,t5,a5
    1558:	0607b783          	ld	a5,96(a5)
    155c:	00800593          	li	a1,8
    1560:	ef1ff06f          	j	1450 <.L23>

0000000000001564 <.L34>:
    1564:	0007b783          	ld	a5,0(a5)
    1568:	00400593          	li	a1,4
    156c:	ee5ff06f          	j	1450 <.L23>

0000000000001570 <.L20>:
    1570:	00379793          	slli	a5,a5,0x3
    1574:	00ff07b3          	add	a5,t5,a5
    1578:	0407b783          	ld	a5,64(a5)
    157c:	00800593          	li	a1,8
    1580:	ed1ff06f          	j	1450 <.L23>

0000000000001584 <.L12>:
    1584:	00000713          	li	a4,0
    1588:	00100693          	li	a3,1
    158c:	0080006f          	j	1594 <.L26>

0000000000001590 <.L38>:
    1590:	0017069b          	addiw	a3,a4,1

0000000000001594 <.L26>:
    1594:	02071793          	slli	a5,a4,0x20
    1598:	0207d793          	srli	a5,a5,0x20
    159c:	00f607b3          	add	a5,a2,a5
    15a0:	0006871b          	sext.w	a4,a3
    15a4:	00078023          	sb	zero,0(a5)
    15a8:	fea764e3          	bltu	a4,a0,1590 <.L38>
    15ac:	00008067          	ret

00000000000015b0 <.L35>:
    15b0:	fea762e3          	bltu	a4,a0,1594 <.L26>
    15b4:	00008067          	ret

00000000000015b8 <core_state_transition>:
    15b8:	00053703          	ld	a4,0(a0)
    15bc:	00050613          	mv	a2,a0
    15c0:	00074683          	lbu	a3,0(a4)
    15c4:	28068063          	beqz	a3,1844 <.L65>
    15c8:	02c00793          	li	a5,44
    15cc:	00000513          	li	a0,0
    15d0:	1ef68063          	beq	a3,a5,17b0 <.L46>
    15d4:	fd06851b          	addiw	a0,a3,-48
    15d8:	0ff57513          	zext.b	a0,a0
    15dc:	00900813          	li	a6,9
    15e0:	04a87263          	bgeu	a6,a0,1624 <.L42>
    15e4:	02d00513          	li	a0,45
    15e8:	1ea68463          	beq	a3,a0,17d0 <.L45>
    15ec:	02e00513          	li	a0,46
    15f0:	08a68c63          	beq	a3,a0,1688 <.L44>
    15f4:	02b00513          	li	a0,43
    15f8:	1ca68c63          	beq	a3,a0,17d0 <.L45>
    15fc:	0045a683          	lw	a3,4(a1)
    1600:	0005a783          	lw	a5,0(a1)
    1604:	00170713          	addi	a4,a4,1
    1608:	0016869b          	addiw	a3,a3,1
    160c:	0017879b          	addiw	a5,a5,1
    1610:	00d5a223          	sw	a3,4(a1)
    1614:	00f5a023          	sw	a5,0(a1)
    1618:	00100513          	li	a0,1
    161c:	00e63023          	sd	a4,0(a2)
    1620:	00008067          	ret

0000000000001624 <.L42>:
    1624:	0005a503          	lw	a0,0(a1)
    1628:	00170693          	addi	a3,a4,1
    162c:	0015051b          	addiw	a0,a0,1
    1630:	00a5a023          	sw	a0,0(a1)
    1634:	00174703          	lbu	a4,1(a4)
    1638:	1e070a63          	beqz	a4,182c <.L74>

000000000000163c <.L90>:
    163c:	16f70663          	beq	a4,a5,17a8 <.L94>
    1640:	02e00793          	li	a5,46
    1644:	14f70a63          	beq	a4,a5,1798 <.L95>
    1648:	fd07071b          	addiw	a4,a4,-48
    164c:	0ff77713          	zext.b	a4,a4
    1650:	00900793          	li	a5,9
    1654:	00e7ec63          	bltu	a5,a4,166c <.L96>

0000000000001658 <.L55>:
    1658:	0016c703          	lbu	a4,1(a3)
    165c:	00168693          	addi	a3,a3,1
    1660:	1c070663          	beqz	a4,182c <.L74>
    1664:	02c00793          	li	a5,44
    1668:	fd5ff06f          	j	163c <.L90>

000000000000166c <.L96>:
    166c:	0105a783          	lw	a5,16(a1)
    1670:	00168713          	addi	a4,a3,1
    1674:	00100513          	li	a0,1
    1678:	0017879b          	addiw	a5,a5,1
    167c:	00f5a823          	sw	a5,16(a1)

0000000000001680 <.L40>:
    1680:	00e63023          	sd	a4,0(a2)
    1684:	00008067          	ret

0000000000001688 <.L44>:
    1688:	0005a503          	lw	a0,0(a1)
    168c:	00170693          	addi	a3,a4,1
    1690:	0015051b          	addiw	a0,a0,1
    1694:	00a5a023          	sw	a0,0(a1)
    1698:	00174703          	lbu	a4,1(a4)
    169c:	18070e63          	beqz	a4,1838 <.L78>

00000000000016a0 <.L92>:
    16a0:	1ef70463          	beq	a4,a5,1888 <.L97>
    16a4:	0df77793          	andi	a5,a4,223
    16a8:	04500513          	li	a0,69
    16ac:	02a78463          	beq	a5,a0,16d4 <.L98>
    16b0:	fd07071b          	addiw	a4,a4,-48
    16b4:	0ff77713          	zext.b	a4,a4
    16b8:	00900793          	li	a5,9
    16bc:	0ee7ee63          	bltu	a5,a4,17b8 <.L58>

00000000000016c0 <.L53>:
    16c0:	0016c703          	lbu	a4,1(a3)
    16c4:	00168693          	addi	a3,a3,1
    16c8:	16070863          	beqz	a4,1838 <.L78>
    16cc:	02c00793          	li	a5,44
    16d0:	fd1ff06f          	j	16a0 <.L92>

00000000000016d4 <.L98>:
    16d4:	0145a783          	lw	a5,20(a1)
    16d8:	00168713          	addi	a4,a3,1
    16dc:	0017879b          	addiw	a5,a5,1
    16e0:	00f5aa23          	sw	a5,20(a1)
    16e4:	0016c783          	lbu	a5,1(a3)
    16e8:	16078663          	beqz	a5,1854 <.L76>
    16ec:	02c00513          	li	a0,44
    16f0:	16a78663          	beq	a5,a0,185c <.L99>
    16f4:	00c5a703          	lw	a4,12(a1)
    16f8:	fd57879b          	addiw	a5,a5,-43
    16fc:	0fd7f793          	andi	a5,a5,253
    1700:	0017071b          	addiw	a4,a4,1
    1704:	00e5a623          	sw	a4,12(a1)
    1708:	00078a63          	beqz	a5,171c <.L100>
    170c:	00268713          	addi	a4,a3,2
    1710:	00100513          	li	a0,1
    1714:	00e63023          	sd	a4,0(a2)
    1718:	00008067          	ret

000000000000171c <.L100>:
    171c:	0026c783          	lbu	a5,2(a3)
    1720:	00268713          	addi	a4,a3,2
    1724:	12078463          	beqz	a5,184c <.L80>
    1728:	14a78063          	beq	a5,a0,1868 <.L101>
    172c:	0185a503          	lw	a0,24(a1)
    1730:	fd07879b          	addiw	a5,a5,-48
    1734:	0ff7f793          	zext.b	a5,a5
    1738:	0015051b          	addiw	a0,a0,1
    173c:	00900813          	li	a6,9
    1740:	00a5ac23          	sw	a0,24(a1)
    1744:	00f87a63          	bgeu	a6,a5,1758 <.L61>
    1748:	00368713          	addi	a4,a3,3
    174c:	00100513          	li	a0,1
    1750:	00e63023          	sd	a4,0(a2)
    1754:	00008067          	ret

0000000000001758 <.L61>:
    1758:	00900513          	li	a0,9

000000000000175c <.L62>:
    175c:	00174683          	lbu	a3,1(a4)
    1760:	00070813          	mv	a6,a4
    1764:	02c00893          	li	a7,44
    1768:	fd06879b          	addiw	a5,a3,-48
    176c:	00170713          	addi	a4,a4,1
    1770:	0ff7f793          	zext.b	a5,a5
    1774:	10068663          	beqz	a3,1880 <.L82>
    1778:	0f168e63          	beq	a3,a7,1874 <.L102>
    177c:	fef570e3          	bgeu	a0,a5,175c <.L62>
    1780:	0045a783          	lw	a5,4(a1)
    1784:	00280713          	addi	a4,a6,2
    1788:	00100513          	li	a0,1
    178c:	0017879b          	addiw	a5,a5,1
    1790:	00f5a223          	sw	a5,4(a1)
    1794:	eedff06f          	j	1680 <.L40>

0000000000001798 <.L95>:
    1798:	0105a783          	lw	a5,16(a1)
    179c:	0017879b          	addiw	a5,a5,1
    17a0:	00f5a823          	sw	a5,16(a1)
    17a4:	f1dff06f          	j	16c0 <.L53>

00000000000017a8 <.L94>:
    17a8:	00068713          	mv	a4,a3
    17ac:	00400513          	li	a0,4

00000000000017b0 <.L46>:
    17b0:	00170713          	addi	a4,a4,1
    17b4:	ecdff06f          	j	1680 <.L40>

00000000000017b8 <.L58>:
    17b8:	0145a783          	lw	a5,20(a1)
    17bc:	00168713          	addi	a4,a3,1
    17c0:	00100513          	li	a0,1
    17c4:	0017879b          	addiw	a5,a5,1
    17c8:	00f5aa23          	sw	a5,20(a1)
    17cc:	eb5ff06f          	j	1680 <.L40>

00000000000017d0 <.L45>:
    17d0:	0005a503          	lw	a0,0(a1)
    17d4:	00170693          	addi	a3,a4,1
    17d8:	0015051b          	addiw	a0,a0,1
    17dc:	00a5a023          	sw	a0,0(a1)
    17e0:	00174803          	lbu	a6,1(a4)
    17e4:	0c080263          	beqz	a6,18a8 <.L72>
    17e8:	0af80863          	beq	a6,a5,1898 <.L73>
    17ec:	0085a703          	lw	a4,8(a1)
    17f0:	fd08079b          	addiw	a5,a6,-48
    17f4:	0ff7f793          	zext.b	a5,a5
    17f8:	00900513          	li	a0,9
    17fc:	0017071b          	addiw	a4,a4,1
    1800:	00f57e63          	bgeu	a0,a5,181c <.L50>
    1804:	02e00793          	li	a5,46
    1808:	00f80e63          	beq	a6,a5,1824 <.L103>
    180c:	00e5a423          	sw	a4,8(a1)
    1810:	00100513          	li	a0,1
    1814:	00168713          	addi	a4,a3,1
    1818:	e69ff06f          	j	1680 <.L40>

000000000000181c <.L50>:
    181c:	00e5a423          	sw	a4,8(a1)
    1820:	e39ff06f          	j	1658 <.L55>

0000000000001824 <.L103>:
    1824:	00e5a423          	sw	a4,8(a1)
    1828:	e99ff06f          	j	16c0 <.L53>

000000000000182c <.L74>:
    182c:	00068713          	mv	a4,a3
    1830:	00400513          	li	a0,4
    1834:	e4dff06f          	j	1680 <.L40>

0000000000001838 <.L78>:
    1838:	00068713          	mv	a4,a3
    183c:	00500513          	li	a0,5
    1840:	e41ff06f          	j	1680 <.L40>

0000000000001844 <.L65>:
    1844:	00000513          	li	a0,0
    1848:	e39ff06f          	j	1680 <.L40>

000000000000184c <.L80>:
    184c:	00600513          	li	a0,6
    1850:	e31ff06f          	j	1680 <.L40>

0000000000001854 <.L76>:
    1854:	00300513          	li	a0,3
    1858:	e29ff06f          	j	1680 <.L40>

000000000000185c <.L99>:
    185c:	00300513          	li	a0,3
    1860:	00170713          	addi	a4,a4,1
    1864:	e1dff06f          	j	1680 <.L40>

0000000000001868 <.L101>:
    1868:	00600513          	li	a0,6
    186c:	00170713          	addi	a4,a4,1
    1870:	e11ff06f          	j	1680 <.L40>

0000000000001874 <.L102>:
    1874:	00700513          	li	a0,7
    1878:	00170713          	addi	a4,a4,1
    187c:	e05ff06f          	j	1680 <.L40>

0000000000001880 <.L82>:
    1880:	00700513          	li	a0,7
    1884:	dfdff06f          	j	1680 <.L40>

0000000000001888 <.L97>:
    1888:	00068713          	mv	a4,a3
    188c:	00500513          	li	a0,5
    1890:	00170713          	addi	a4,a4,1
    1894:	dedff06f          	j	1680 <.L40>

0000000000001898 <.L73>:
    1898:	00068713          	mv	a4,a3
    189c:	00200513          	li	a0,2
    18a0:	00170713          	addi	a4,a4,1
    18a4:	dddff06f          	j	1680 <.L40>

00000000000018a8 <.L72>:
    18a8:	00068713          	mv	a4,a3
    18ac:	00200513          	li	a0,2
    18b0:	dd1ff06f          	j	1680 <.L40>

00000000000018b4 <core_bench_state>:
    18b4:	f6010113          	addi	sp,sp,-160
    18b8:	08813823          	sd	s0,144(sp)
    18bc:	08913423          	sd	s1,136(sp)
    18c0:	09213023          	sd	s2,128(sp)
    18c4:	07313c23          	sd	s3,120(sp)
    18c8:	07413823          	sd	s4,112(sp)
    18cc:	07513423          	sd	s5,104(sp)
    18d0:	07613023          	sd	s6,96(sp)
    18d4:	05713c23          	sd	s7,88(sp)
    18d8:	08113c23          	sd	ra,152(sp)
    18dc:	00058413          	mv	s0,a1
    18e0:	0005c583          	lbu	a1,0(a1)
    18e4:	00813423          	sd	s0,8(sp)
    18e8:	02013823          	sd	zero,48(sp)
    18ec:	00013823          	sd	zero,16(sp)
    18f0:	02013c23          	sd	zero,56(sp)
    18f4:	04013023          	sd	zero,64(sp)
    18f8:	04013423          	sd	zero,72(sp)
    18fc:	00013c23          	sd	zero,24(sp)
    1900:	02013023          	sd	zero,32(sp)
    1904:	02013423          	sd	zero,40(sp)
    1908:	03010913          	addi	s2,sp,48
    190c:	00050b93          	mv	s7,a0
    1910:	00060b13          	mv	s6,a2
    1914:	00068a13          	mv	s4,a3
    1918:	00070993          	mv	s3,a4
    191c:	00078493          	mv	s1,a5
    1920:	00810a93          	addi	s5,sp,8
    1924:	14058063          	beqz	a1,1a64 <.L131>

0000000000001928 <.L105>:
    1928:	00090593          	mv	a1,s2
    192c:	000a8513          	mv	a0,s5
    1930:	00000097          	auipc	ra,0x0
    1934:	000080e7          	jalr	ra # 1930 <.L105+0x8>
    1938:	02051793          	slli	a5,a0,0x20
    193c:	01e7d813          	srli	a6,a5,0x1e
    1940:	05080793          	addi	a5,a6,80
    1944:	00278833          	add	a6,a5,sp
    1948:	00813703          	ld	a4,8(sp)
    194c:	fc082783          	lw	a5,-64(a6)
    1950:	00074703          	lbu	a4,0(a4)
    1954:	0017879b          	addiw	a5,a5,1
    1958:	fcf82023          	sw	a5,-64(a6)
    195c:	fc0716e3          	bnez	a4,1928 <.L105>
    1960:	020b9b93          	slli	s7,s7,0x20
    1964:	020bdb93          	srli	s7,s7,0x20
    1968:	00813423          	sd	s0,8(sp)
    196c:	01740bb3          	add	s7,s0,s7
    1970:	03747863          	bgeu	s0,s7,19a0 <.L113>

0000000000001974 <.L106>:
    1974:	00040793          	mv	a5,s0
    1978:	02c00613          	li	a2,44

000000000000197c <.L111>:
    197c:	0007c703          	lbu	a4,0(a5)
    1980:	016746b3          	xor	a3,a4,s6
    1984:	00c70463          	beq	a4,a2,198c <.L110>
    1988:	00d78023          	sb	a3,0(a5)

000000000000198c <.L110>:
    198c:	013787b3          	add	a5,a5,s3
    1990:	ff77e6e3          	bltu	a5,s7,197c <.L111>
    1994:	00044783          	lbu	a5,0(s0)
    1998:	00810a93          	addi	s5,sp,8
    199c:	02078e63          	beqz	a5,19d8 <.L114>

00000000000019a0 <.L113>:
    19a0:	00090593          	mv	a1,s2
    19a4:	000a8513          	mv	a0,s5
    19a8:	00000097          	auipc	ra,0x0
    19ac:	000080e7          	jalr	ra # 19a8 <.L113+0x8>
    19b0:	02051793          	slli	a5,a0,0x20
    19b4:	01e7d613          	srli	a2,a5,0x1e
    19b8:	05060793          	addi	a5,a2,80
    19bc:	00278633          	add	a2,a5,sp
    19c0:	00813703          	ld	a4,8(sp)
    19c4:	fc062783          	lw	a5,-64(a2)
    19c8:	00074703          	lbu	a4,0(a4)
    19cc:	0017879b          	addiw	a5,a5,1
    19d0:	fcf62023          	sw	a5,-64(a2)
    19d4:	fc0716e3          	bnez	a4,19a0 <.L113>

00000000000019d8 <.L114>:
    19d8:	00813423          	sd	s0,8(sp)
    19dc:	00040613          	mv	a2,s0
    19e0:	02c00693          	li	a3,44
    19e4:	01747e63          	bgeu	s0,s7,1a00 <.L115>

00000000000019e8 <.L117>:
    19e8:	00064783          	lbu	a5,0(a2)
    19ec:	0147c733          	xor	a4,a5,s4
    19f0:	00d78463          	beq	a5,a3,19f8 <.L116>
    19f4:	00e60023          	sb	a4,0(a2)

00000000000019f8 <.L116>:
    19f8:	01360633          	add	a2,a2,s3
    19fc:	ff7666e3          	bltu	a2,s7,19e8 <.L117>

0000000000001a00 <.L115>:
    1a00:	01010413          	addi	s0,sp,16
    1a04:	00090993          	mv	s3,s2

0000000000001a08 <.L118>:
    1a08:	00042503          	lw	a0,0(s0)
    1a0c:	00048593          	mv	a1,s1
    1a10:	00440413          	addi	s0,s0,4
    1a14:	00000097          	auipc	ra,0x0
    1a18:	000080e7          	jalr	ra # 1a14 <.L118+0xc>
    1a1c:	00050593          	mv	a1,a0
    1a20:	0009a503          	lw	a0,0(s3)
    1a24:	00498993          	addi	s3,s3,4
    1a28:	00000097          	auipc	ra,0x0
    1a2c:	000080e7          	jalr	ra # 1a28 <.L118+0x20>
    1a30:	00050493          	mv	s1,a0
    1a34:	fc891ae3          	bne	s2,s0,1a08 <.L118>
    1a38:	09813083          	ld	ra,152(sp)
    1a3c:	09013403          	ld	s0,144(sp)
    1a40:	08813483          	ld	s1,136(sp)
    1a44:	08013903          	ld	s2,128(sp)
    1a48:	07813983          	ld	s3,120(sp)
    1a4c:	07013a03          	ld	s4,112(sp)
    1a50:	06813a83          	ld	s5,104(sp)
    1a54:	06013b03          	ld	s6,96(sp)
    1a58:	05813b83          	ld	s7,88(sp)
    1a5c:	0a010113          	addi	sp,sp,160
    1a60:	00008067          	ret

0000000000001a64 <.L131>:
    1a64:	02051b93          	slli	s7,a0,0x20
    1a68:	020bdb93          	srli	s7,s7,0x20
    1a6c:	01740bb3          	add	s7,s0,s7
    1a70:	f17462e3          	bltu	s0,s7,1974 <.L106>
    1a74:	f8dff06f          	j	1a00 <.L115>

0000000000001a78 <get_seed_32>:
    1a78:	00500793          	li	a5,5
    1a7c:	04a7ee63          	bltu	a5,a0,1ad8 <.L9>
    1a80:	00000717          	auipc	a4,0x0
    1a84:	00070713          	mv	a4,a4
    1a88:	00251513          	slli	a0,a0,0x2
    1a8c:	00e50533          	add	a0,a0,a4
    1a90:	00052783          	lw	a5,0(a0)
    1a94:	00e787b3          	add	a5,a5,a4
    1a98:	00078067          	jr	a5

0000000000001a9c <.L3>:
    1a9c:	00000517          	auipc	a0,0x0
    1aa0:	00052503          	lw	a0,0(a0) # 1a9c <.L3>
    1aa4:	00008067          	ret

0000000000001aa8 <.L8>:
    1aa8:	00000517          	auipc	a0,0x0
    1aac:	00052503          	lw	a0,0(a0) # 1aa8 <.L8>
    1ab0:	00008067          	ret

0000000000001ab4 <.L7>:
    1ab4:	00000517          	auipc	a0,0x0
    1ab8:	00052503          	lw	a0,0(a0) # 1ab4 <.L7>
    1abc:	00008067          	ret

0000000000001ac0 <.L6>:
    1ac0:	00000517          	auipc	a0,0x0
    1ac4:	00052503          	lw	a0,0(a0) # 1ac0 <.L6>
    1ac8:	00008067          	ret

0000000000001acc <.L5>:
    1acc:	00000517          	auipc	a0,0x0
    1ad0:	00052503          	lw	a0,0(a0) # 1acc <.L5>
    1ad4:	00008067          	ret

0000000000001ad8 <.L9>:
    1ad8:	00000513          	li	a0,0
    1adc:	00008067          	ret

0000000000001ae0 <crcu8>:
    1ae0:	00050693          	mv	a3,a0
    1ae4:	00058513          	mv	a0,a1
    1ae8:	ffffa5b7          	lui	a1,0xffffa
    1aec:	00800793          	li	a5,8
    1af0:	00158593          	addi	a1,a1,1 # ffffffffffffa001 <.LLST3+0xffffffffffff4253>

0000000000001af4 <.L13>:
    1af4:	00a6c733          	xor	a4,a3,a0
    1af8:	fff7879b          	addiw	a5,a5,-1
    1afc:	00155513          	srli	a0,a0,0x1
    1b00:	00177713          	andi	a4,a4,1
    1b04:	0ff7f793          	zext.b	a5,a5
    1b08:	00b54633          	xor	a2,a0,a1
    1b0c:	0016d693          	srli	a3,a3,0x1
    1b10:	00070663          	beqz	a4,1b1c <.L12>
    1b14:	03061513          	slli	a0,a2,0x30
    1b18:	03055513          	srli	a0,a0,0x30

0000000000001b1c <.L12>:
    1b1c:	fc079ce3          	bnez	a5,1af4 <.L13>
    1b20:	00008067          	ret

0000000000001b24 <crcu16>:
    1b24:	00050693          	mv	a3,a0
    1b28:	ffffa837          	lui	a6,0xffffa
    1b2c:	00058513          	mv	a0,a1
    1b30:	0ff6f613          	zext.b	a2,a3
    1b34:	00800793          	li	a5,8
    1b38:	00180813          	addi	a6,a6,1 # ffffffffffffa001 <.LLST3+0xffffffffffff4253>

0000000000001b3c <.L20>:
    1b3c:	00a64733          	xor	a4,a2,a0
    1b40:	fff7879b          	addiw	a5,a5,-1
    1b44:	00155513          	srli	a0,a0,0x1
    1b48:	00177713          	andi	a4,a4,1
    1b4c:	0ff7f793          	zext.b	a5,a5
    1b50:	010545b3          	xor	a1,a0,a6
    1b54:	00165613          	srli	a2,a2,0x1
    1b58:	00070663          	beqz	a4,1b64 <.L19>
    1b5c:	03059513          	slli	a0,a1,0x30
    1b60:	03055513          	srli	a0,a0,0x30

0000000000001b64 <.L19>:
    1b64:	fc079ce3          	bnez	a5,1b3c <.L20>
    1b68:	ffffa5b7          	lui	a1,0xffffa
    1b6c:	0086d693          	srli	a3,a3,0x8
    1b70:	00800793          	li	a5,8
    1b74:	00158593          	addi	a1,a1,1 # ffffffffffffa001 <.LLST3+0xffffffffffff4253>

0000000000001b78 <.L22>:
    1b78:	00a6c733          	xor	a4,a3,a0
    1b7c:	fff7879b          	addiw	a5,a5,-1
    1b80:	00155513          	srli	a0,a0,0x1
    1b84:	00177713          	andi	a4,a4,1
    1b88:	0ff7f793          	zext.b	a5,a5
    1b8c:	00b54633          	xor	a2,a0,a1
    1b90:	0016d693          	srli	a3,a3,0x1
    1b94:	00070663          	beqz	a4,1ba0 <.L21>
    1b98:	03061513          	slli	a0,a2,0x30
    1b9c:	03055513          	srli	a0,a0,0x30

0000000000001ba0 <.L21>:
    1ba0:	fc079ce3          	bnez	a5,1b78 <.L22>
    1ba4:	00008067          	ret

0000000000001ba8 <crcu32>:
    1ba8:	00050713          	mv	a4,a0
    1bac:	03071613          	slli	a2,a4,0x30
    1bb0:	ffffa8b7          	lui	a7,0xffffa
    1bb4:	00058513          	mv	a0,a1
    1bb8:	03065613          	srli	a2,a2,0x30
    1bbc:	0ff77593          	zext.b	a1,a4
    1bc0:	00800793          	li	a5,8
    1bc4:	00188893          	addi	a7,a7,1 # ffffffffffffa001 <.LLST3+0xffffffffffff4253>

0000000000001bc8 <.L33>:
    1bc8:	00a5c6b3          	xor	a3,a1,a0
    1bcc:	fff7879b          	addiw	a5,a5,-1
    1bd0:	00155513          	srli	a0,a0,0x1
    1bd4:	0016f693          	andi	a3,a3,1
    1bd8:	0ff7f793          	zext.b	a5,a5
    1bdc:	01154833          	xor	a6,a0,a7
    1be0:	0015d593          	srli	a1,a1,0x1
    1be4:	00068663          	beqz	a3,1bf0 <.L32>
    1be8:	03081513          	slli	a0,a6,0x30
    1bec:	03055513          	srli	a0,a0,0x30

0000000000001bf0 <.L32>:
    1bf0:	fc079ce3          	bnez	a5,1bc8 <.L33>
    1bf4:	ffffa837          	lui	a6,0xffffa
    1bf8:	00865613          	srli	a2,a2,0x8
    1bfc:	00800793          	li	a5,8
    1c00:	00180813          	addi	a6,a6,1 # ffffffffffffa001 <.LLST3+0xffffffffffff4253>

0000000000001c04 <.L35>:
    1c04:	00a646b3          	xor	a3,a2,a0
    1c08:	fff7879b          	addiw	a5,a5,-1
    1c0c:	00155513          	srli	a0,a0,0x1
    1c10:	0016f693          	andi	a3,a3,1
    1c14:	0ff7f793          	zext.b	a5,a5
    1c18:	010545b3          	xor	a1,a0,a6
    1c1c:	00165613          	srli	a2,a2,0x1
    1c20:	00068663          	beqz	a3,1c2c <.L34>
    1c24:	03059513          	slli	a0,a1,0x30
    1c28:	03055513          	srli	a0,a0,0x30

0000000000001c2c <.L34>:
    1c2c:	fc079ce3          	bnez	a5,1c04 <.L35>
    1c30:	0107561b          	srliw	a2,a4,0x10
    1c34:	ffffa837          	lui	a6,0xffffa
    1c38:	00060713          	mv	a4,a2
    1c3c:	00800793          	li	a5,8
    1c40:	0ff67613          	zext.b	a2,a2
    1c44:	00180813          	addi	a6,a6,1 # ffffffffffffa001 <.LLST3+0xffffffffffff4253>

0000000000001c48 <.L37>:
    1c48:	00a646b3          	xor	a3,a2,a0
    1c4c:	fff7879b          	addiw	a5,a5,-1
    1c50:	00155513          	srli	a0,a0,0x1
    1c54:	0016f693          	andi	a3,a3,1
    1c58:	0ff7f793          	zext.b	a5,a5
    1c5c:	010545b3          	xor	a1,a0,a6
    1c60:	00165613          	srli	a2,a2,0x1
    1c64:	00068663          	beqz	a3,1c70 <.L36>
    1c68:	03059513          	slli	a0,a1,0x30
    1c6c:	03055513          	srli	a0,a0,0x30

0000000000001c70 <.L36>:
    1c70:	fc079ce3          	bnez	a5,1c48 <.L37>
    1c74:	ffffa5b7          	lui	a1,0xffffa
    1c78:	00875713          	srli	a4,a4,0x8
    1c7c:	00800793          	li	a5,8
    1c80:	00158593          	addi	a1,a1,1 # ffffffffffffa001 <.LLST3+0xffffffffffff4253>

0000000000001c84 <.L39>:
    1c84:	00a746b3          	xor	a3,a4,a0
    1c88:	fff7879b          	addiw	a5,a5,-1
    1c8c:	00155513          	srli	a0,a0,0x1
    1c90:	0016f693          	andi	a3,a3,1
    1c94:	0ff7f793          	zext.b	a5,a5
    1c98:	00b54633          	xor	a2,a0,a1
    1c9c:	00175713          	srli	a4,a4,0x1
    1ca0:	00068663          	beqz	a3,1cac <.L38>
    1ca4:	03061513          	slli	a0,a2,0x30
    1ca8:	03055513          	srli	a0,a0,0x30

0000000000001cac <.L38>:
    1cac:	fc079ce3          	bnez	a5,1c84 <.L39>
    1cb0:	00008067          	ret

0000000000001cb4 <crc16>:
    1cb4:	00050693          	mv	a3,a0
    1cb8:	03069613          	slli	a2,a3,0x30
    1cbc:	ffffa837          	lui	a6,0xffffa
    1cc0:	00058513          	mv	a0,a1
    1cc4:	03065613          	srli	a2,a2,0x30
    1cc8:	0ff6f693          	zext.b	a3,a3
    1ccc:	00800793          	li	a5,8
    1cd0:	00180813          	addi	a6,a6,1 # ffffffffffffa001 <.LLST3+0xffffffffffff4253>

0000000000001cd4 <.L58>:
    1cd4:	00a6c733          	xor	a4,a3,a0
    1cd8:	fff7879b          	addiw	a5,a5,-1
    1cdc:	00155513          	srli	a0,a0,0x1
    1ce0:	00177713          	andi	a4,a4,1
    1ce4:	0ff7f793          	zext.b	a5,a5
    1ce8:	010545b3          	xor	a1,a0,a6
    1cec:	0016d693          	srli	a3,a3,0x1
    1cf0:	00070663          	beqz	a4,1cfc <.L57>
    1cf4:	03059513          	slli	a0,a1,0x30
    1cf8:	03055513          	srli	a0,a0,0x30

0000000000001cfc <.L57>:
    1cfc:	fc079ce3          	bnez	a5,1cd4 <.L58>
    1d00:	ffffa5b7          	lui	a1,0xffffa
    1d04:	00865693          	srli	a3,a2,0x8
    1d08:	00800793          	li	a5,8
    1d0c:	00158593          	addi	a1,a1,1 # ffffffffffffa001 <.LLST3+0xffffffffffff4253>

0000000000001d10 <.L60>:
    1d10:	00a6c733          	xor	a4,a3,a0
    1d14:	fff7879b          	addiw	a5,a5,-1
    1d18:	00155513          	srli	a0,a0,0x1
    1d1c:	00177713          	andi	a4,a4,1
    1d20:	0ff7f793          	zext.b	a5,a5
    1d24:	00b54633          	xor	a2,a0,a1
    1d28:	0016d693          	srli	a3,a3,0x1
    1d2c:	00070663          	beqz	a4,1d38 <.L59>
    1d30:	03061513          	slli	a0,a2,0x30
    1d34:	03055513          	srli	a0,a0,0x30

0000000000001d38 <.L59>:
    1d38:	fc079ce3          	bnez	a5,1d10 <.L60>
    1d3c:	00008067          	ret

0000000000001d40 <check_data_types>:
    1d40:	00000513          	li	a0,0
    1d44:	00008067          	ret

0000000000001d48 <start_time>:
    1d48:	ff010113          	addi	sp,sp,-16
    1d4c:	00113423          	sd	ra,8(sp)
    1d50:	00000097          	auipc	ra,0x0
    1d54:	000080e7          	jalr	ra # 1d50 <start_time+0x8>
    1d58:	00813083          	ld	ra,8(sp)
    1d5c:	00000797          	auipc	a5,0x0
    1d60:	00a7b023          	sd	a0,0(a5) # 1d5c <start_time+0x14>
    1d64:	01010113          	addi	sp,sp,16
    1d68:	00008067          	ret

0000000000001d6c <stop_time>:
    1d6c:	ff010113          	addi	sp,sp,-16
    1d70:	00113423          	sd	ra,8(sp)
    1d74:	00000097          	auipc	ra,0x0
    1d78:	000080e7          	jalr	ra # 1d74 <stop_time+0x8>
    1d7c:	00813083          	ld	ra,8(sp)
    1d80:	00000797          	auipc	a5,0x0
    1d84:	00a7b023          	sd	a0,0(a5) # 1d80 <stop_time+0x14>
    1d88:	01010113          	addi	sp,sp,16
    1d8c:	00008067          	ret

0000000000001d90 <get_time>:
    1d90:	00000517          	auipc	a0,0x0
    1d94:	00053503          	ld	a0,0(a0) # 1d90 <get_time>
    1d98:	00000797          	auipc	a5,0x0
    1d9c:	0007b783          	ld	a5,0(a5) # 1d98 <get_time+0x8>
    1da0:	40f50533          	sub	a0,a0,a5
    1da4:	00008067          	ret

0000000000001da8 <time_in_secs>:
    1da8:	d2357553          	fcvt.d.lu	fa0,a0
    1dac:	00000797          	auipc	a5,0x0
    1db0:	0007b787          	fld	fa5,0(a5) # 1dac <time_in_secs+0x4>
    1db4:	1af57553          	fdiv.d	fa0,fa0,fa5
    1db8:	00008067          	ret

0000000000001dbc <portable_init>:
    1dbc:	ff010113          	addi	sp,sp,-16
    1dc0:	00813023          	sd	s0,0(sp)
    1dc4:	00800593          	li	a1,8
    1dc8:	00050413          	mv	s0,a0
    1dcc:	00000517          	auipc	a0,0x0
    1dd0:	00050513          	mv	a0,a0
    1dd4:	00113423          	sd	ra,8(sp)
    1dd8:	00000097          	auipc	ra,0x0
    1ddc:	000080e7          	jalr	ra # 1dd8 <portable_init+0x1c>
    1de0:	00800593          	li	a1,8
    1de4:	00000517          	auipc	a0,0x0
    1de8:	00050513          	mv	a0,a0
    1dec:	00000097          	auipc	ra,0x0
    1df0:	000080e7          	jalr	ra # 1dec <portable_init+0x30>
    1df4:	00100793          	li	a5,1
    1df8:	00f40023          	sb	a5,0(s0)
    1dfc:	00813083          	ld	ra,8(sp)
    1e00:	00013403          	ld	s0,0(sp)
    1e04:	01010113          	addi	sp,sp,16
    1e08:	00008067          	ret

0000000000001e0c <portable_fini>:
    1e0c:	00050023          	sb	zero,0(a0) # 1de4 <portable_init+0x28>
    1e10:	00008067          	ret

0000000000001e14 <memset>:
    1e14:	433d                	li	t1,15
    1e16:	872a                	mv	a4,a0
    1e18:	02c37163          	bgeu	t1,a2,1e3a <.Ltiny>
    1e1c:	00f77793          	andi	a5,a4,15
    1e20:	e3c1                	bnez	a5,1ea0 <.Lmisaligned>

0000000000001e22 <.Laligned>:
    1e22:	e1bd                	bnez	a1,1e88 <.Lwordify>

0000000000001e24 <.Lwordified>:
    1e24:	ff067693          	andi	a3,a2,-16
    1e28:	8a3d                	andi	a2,a2,15
    1e2a:	96ba                	add	a3,a3,a4

0000000000001e2c <.L1^B1>:
    1e2c:	e30c                	sd	a1,0(a4)
    1e2e:	e70c                	sd	a1,8(a4)
    1e30:	0741                	addi	a4,a4,16 # 1a90 <get_seed_32+0x18>
    1e32:	fed76de3          	bltu	a4,a3,1e2c <.L1^B1>
    1e36:	e211                	bnez	a2,1e3a <.Ltiny>
    1e38:	8082                	ret

0000000000001e3a <.Ltiny>:
    1e3a:	40c306b3          	sub	a3,t1,a2
    1e3e:	068a                	slli	a3,a3,0x2

0000000000001e40 <.L1^B2>:
    1e40:	00000297          	auipc	t0,0x0
    1e44:	9696                	add	a3,a3,t0

0000000000001e46 <.Ltable_misaligned>:
    1e46:	00068067          	jr	a3

0000000000001e4a <.Ltable>:
    1e4a:	00b70723          	sb	a1,14(a4)
    1e4e:	00b706a3          	sb	a1,13(a4)
    1e52:	00b70623          	sb	a1,12(a4)
    1e56:	00b705a3          	sb	a1,11(a4)
    1e5a:	00b70523          	sb	a1,10(a4)
    1e5e:	00b704a3          	sb	a1,9(a4)
    1e62:	00b70423          	sb	a1,8(a4)
    1e66:	00b703a3          	sb	a1,7(a4)
    1e6a:	00b70323          	sb	a1,6(a4)
    1e6e:	00b702a3          	sb	a1,5(a4)
    1e72:	00b70223          	sb	a1,4(a4)
    1e76:	00b701a3          	sb	a1,3(a4)
    1e7a:	00b70123          	sb	a1,2(a4)
    1e7e:	00b700a3          	sb	a1,1(a4)
    1e82:	00b70023          	sb	a1,0(a4)
    1e86:	8082                	ret

0000000000001e88 <.Lwordify>:
    1e88:	0ff5f593          	zext.b	a1,a1
    1e8c:	00859693          	slli	a3,a1,0x8
    1e90:	8dd5                	or	a1,a1,a3
    1e92:	01059693          	slli	a3,a1,0x10
    1e96:	8dd5                	or	a1,a1,a3
    1e98:	02059693          	slli	a3,a1,0x20
    1e9c:	8dd5                	or	a1,a1,a3
    1e9e:	b759                	j	1e24 <.Lwordified>

0000000000001ea0 <.Lmisaligned>:
    1ea0:	00279693          	slli	a3,a5,0x2

0000000000001ea4 <.L1^B3>:
    1ea4:	00000297          	auipc	t0,0x0
    1ea8:	9696                	add	a3,a3,t0
    1eaa:	8286                	mv	t0,ra
    1eac:	000680e7          	jalr	a3
    1eb0:	8096                	mv	ra,t0
    1eb2:	17c1                	addi	a5,a5,-16
    1eb4:	8f1d                	sub	a4,a4,a5
    1eb6:	963e                	add	a2,a2,a5
    1eb8:	f8c371e3          	bgeu	t1,a2,1e3a <.Ltiny>
    1ebc:	b79d                	j	1e22 <.Laligned>

0000000000001ebe <strcmp>:
    1ebe:	00b56733          	or	a4,a0,a1
    1ec2:	53fd                	li	t2,-1
    1ec4:	8b1d                	andi	a4,a4,7
    1ec6:	eb4d                	bnez	a4,1f78 <.Lmisaligned>
    1ec8:	00000797          	auipc	a5,0x0
    1ecc:	0007b783          	ld	a5,0(a5) # 1ec8 <strcmp+0xa>

0000000000001ed0 <.Lloop>:
    1ed0:	6110                	ld	a2,0(a0)
    1ed2:	6194                	ld	a3,0(a1)
    1ed4:	00f672b3          	and	t0,a2,a5
    1ed8:	00f66333          	or	t1,a2,a5
    1edc:	92be                	add	t0,t0,a5
    1ede:	0062e2b3          	or	t0,t0,t1
    1ee2:	0a729963          	bne	t0,t2,1f94 <.Lnull0>
    1ee6:	02d61e63          	bne	a2,a3,1f22 <.Lmismatch>
    1eea:	6510                	ld	a2,8(a0)
    1eec:	6594                	ld	a3,8(a1)
    1eee:	00f672b3          	and	t0,a2,a5
    1ef2:	00f66333          	or	t1,a2,a5
    1ef6:	92be                	add	t0,t0,a5
    1ef8:	0062e2b3          	or	t0,t0,t1
    1efc:	08729a63          	bne	t0,t2,1f90 <.Lnull1>
    1f00:	02d61163          	bne	a2,a3,1f22 <.Lmismatch>
    1f04:	6910                	ld	a2,16(a0)
    1f06:	6994                	ld	a3,16(a1)
    1f08:	00f672b3          	and	t0,a2,a5
    1f0c:	00f66333          	or	t1,a2,a5
    1f10:	92be                	add	t0,t0,a5
    1f12:	0062e2b3          	or	t0,t0,t1
    1f16:	08729363          	bne	t0,t2,1f9c <.Lnull2>
    1f1a:	0561                	addi	a0,a0,24
    1f1c:	05e1                	addi	a1,a1,24
    1f1e:	fad609e3          	beq	a2,a3,1ed0 <.Lloop>

0000000000001f22 <.Lmismatch>:
    1f22:	03061713          	slli	a4,a2,0x30
    1f26:	03069793          	slli	a5,a3,0x30
    1f2a:	02f71863          	bne	a4,a5,1f5a <.Lmismatch_upper>
    1f2e:	02061713          	slli	a4,a2,0x20
    1f32:	02069793          	slli	a5,a3,0x20
    1f36:	02f71263          	bne	a4,a5,1f5a <.Lmismatch_upper>
    1f3a:	01061713          	slli	a4,a2,0x10
    1f3e:	01069793          	slli	a5,a3,0x10
    1f42:	00f71c63          	bne	a4,a5,1f5a <.Lmismatch_upper>
    1f46:	03065713          	srli	a4,a2,0x30
    1f4a:	0306d793          	srli	a5,a3,0x30
    1f4e:	40f70533          	sub	a0,a4,a5
    1f52:	0ff57593          	zext.b	a1,a0
    1f56:	e991                	bnez	a1,1f6a <.L1^B1>
    1f58:	8082                	ret

0000000000001f5a <.Lmismatch_upper>:
    1f5a:	9341                	srli	a4,a4,0x30
    1f5c:	93c1                	srli	a5,a5,0x30
    1f5e:	40f70533          	sub	a0,a4,a5
    1f62:	0ff57593          	zext.b	a1,a0
    1f66:	e191                	bnez	a1,1f6a <.L1^B1>
    1f68:	8082                	ret

0000000000001f6a <.L1^B1>:
    1f6a:	0ff77713          	zext.b	a4,a4
    1f6e:	0ff7f793          	zext.b	a5,a5
    1f72:	40f70533          	sub	a0,a4,a5
    1f76:	8082                	ret

0000000000001f78 <.Lmisaligned>:
    1f78:	00054603          	lbu	a2,0(a0)
    1f7c:	0005c683          	lbu	a3,0(a1)
    1f80:	0505                	addi	a0,a0,1
    1f82:	0585                	addi	a1,a1,1
    1f84:	00d61363          	bne	a2,a3,1f8a <.L1^B2>
    1f88:	fa65                	bnez	a2,1f78 <.Lmisaligned>

0000000000001f8a <.L1^B2>:
    1f8a:	40d60533          	sub	a0,a2,a3
    1f8e:	8082                	ret

0000000000001f90 <.Lnull1>:
    1f90:	0521                	addi	a0,a0,8
    1f92:	05a1                	addi	a1,a1,8

0000000000001f94 <.Lnull0>:
    1f94:	fed612e3          	bne	a2,a3,1f78 <.Lmisaligned>
    1f98:	4501                	li	a0,0
    1f9a:	8082                	ret

0000000000001f9c <.Lnull2>:
    1f9c:	0541                	addi	a0,a0,16
    1f9e:	05c1                	addi	a1,a1,16
    1fa0:	fcd61ce3          	bne	a2,a3,1f78 <.Lmisaligned>
    1fa4:	4501                	li	a0,0
    1fa6:	8082                	ret

0000000000001fa8 <__eqtf2>:
    1fa8:	002027f3          	frrm	a5

0000000000001fac <.LBB2>:
    1fac:	67a1                	lui	a5,0x8
    1fae:	0305d813          	srli	a6,a1,0x30
    1fb2:	17fd                	addi	a5,a5,-1 # 7fff <.LLST3+0x2251>
    1fb4:	5e7d                	li	t3,-1
    1fb6:	010e5713          	srli	a4,t3,0x10

0000000000001fba <.LBB3>:
    1fba:	0306d313          	srli	t1,a3,0x30

0000000000001fbe <.LBB4>:
    1fbe:	00f87833          	and	a6,a6,a5
    1fc2:	00e5f8b3          	and	a7,a1,a4

0000000000001fc6 <.LBB5>:
    1fc6:	00f37333          	and	t1,t1,a5
    1fca:	8f75                	and	a4,a4,a3

0000000000001fcc <.LBB6>:
    1fcc:	91fd                	srli	a1,a1,0x3f

0000000000001fce <.LBB7>:
    1fce:	92fd                	srli	a3,a3,0x3f

0000000000001fd0 <.LBE7>:
    1fd0:	00f81f63          	bne	a6,a5,1fee <.L2>
    1fd4:	00a8e533          	or	a0,a7,a0

0000000000001fd8 <.LVL5>:
    1fd8:	e90d                	bnez	a0,200a <.L3>
    1fda:	4785                	li	a5,1
    1fdc:	01031763          	bne	t1,a6,1fea <.L4>
    1fe0:	8e59                	or	a2,a2,a4

0000000000001fe2 <.LVL6>:
    1fe2:	ea19                	bnez	a2,1ff8 <.L5>
    1fe4:	8d95                	sub	a1,a1,a3

0000000000001fe6 <.LVL7>:
    1fe6:	00b037b3          	snez	a5,a1

0000000000001fea <.L4>:
    1fea:	853e                	mv	a0,a5
    1fec:	a805                	j	201c <.L1>

0000000000001fee <.L2>:
    1fee:	02f31863          	bne	t1,a5,201e <.L6>
    1ff2:	8e59                	or	a2,a2,a4

0000000000001ff4 <.LVL11>:
    1ff4:	4785                	li	a5,1
    1ff6:	da75                	beqz	a2,1fea <.L4>

0000000000001ff8 <.L5>:
    1ff8:	57fd                	li	a5,-1
    1ffa:	83c5                	srli	a5,a5,0x11

0000000000001ffc <.LBE8>:
    1ffc:	4505                	li	a0,1

0000000000001ffe <.LBB9>:
    1ffe:	00e7ef63          	bltu	a5,a4,201c <.L1>

0000000000002002 <.L7>:
    2002:	00186073          	csrsi	fflags,16
    2006:	4505                	li	a0,1
    2008:	8082                	ret

000000000000200a <.L3>:
    200a:	011e5e13          	srli	t3,t3,0x11
    200e:	ff1e7ae3          	bgeu	t3,a7,2002 <.L7>

0000000000002012 <.LBB11>:
    2012:	4505                	li	a0,1

0000000000002014 <.LBB12>:
    2014:	01031463          	bne	t1,a6,201c <.L1>

0000000000002018 <.LVL16>:
    2018:	8e59                	or	a2,a2,a4

000000000000201a <.LVL17>:
    201a:	fe79                	bnez	a2,1ff8 <.L5>

000000000000201c <.L1>:
    201c:	8082                	ret

000000000000201e <.L6>:
    201e:	4785                	li	a5,1
    2020:	fc6815e3          	bne	a6,t1,1fea <.L4>
    2024:	fce893e3          	bne	a7,a4,1fea <.L4>
    2028:	fcc511e3          	bne	a0,a2,1fea <.L4>
    202c:	00d58963          	beq	a1,a3,203e <.L16>
    2030:	fa081de3          	bnez	a6,1fea <.L4>
    2034:	00a8e8b3          	or	a7,a7,a0

0000000000002038 <.LVL20>:
    2038:	011037b3          	snez	a5,a7
    203c:	b77d                	j	1fea <.L4>

000000000000203e <.L16>:
    203e:	4781                	li	a5,0
    2040:	b76d                	j	1fea <.L4>

0000000000002042 <__getf2>:
    2042:	832a                	mv	t1,a0
    2044:	002027f3          	frrm	a5

0000000000002048 <.LBB2>:
    2048:	6e21                	lui	t3,0x8
    204a:	0305d893          	srli	a7,a1,0x30
    204e:	1e7d                	addi	t3,t3,-1 # 7fff <.LLST3+0x2251>
    2050:	577d                	li	a4,-1
    2052:	8341                	srli	a4,a4,0x10

0000000000002054 <.LBB3>:
    2054:	0306d793          	srli	a5,a3,0x30

0000000000002058 <.LBB4>:
    2058:	01c8f8b3          	and	a7,a7,t3
    205c:	00e5f833          	and	a6,a1,a4

0000000000002060 <.LBB5>:
    2060:	01c7f533          	and	a0,a5,t3

0000000000002064 <.LVL3>:
    2064:	8f75                	and	a4,a4,a3

0000000000002066 <.LBB6>:
    2066:	91fd                	srli	a1,a1,0x3f

0000000000002068 <.LBB7>:
    2068:	92fd                	srli	a3,a3,0x3f

000000000000206a <.LBE7>:
    206a:	03c89263          	bne	a7,t3,208e <.L2>
    206e:	00686833          	or	a6,a6,t1

0000000000002072 <.LVL6>:
    2072:	08081463          	bnez	a6,20fa <.L3>
    2076:	01150663          	beq	a0,a7,2082 <.L4>

000000000000207a <.L21>:
    207a:	4505                	li	a0,1

000000000000207c <.LVL8>:
    207c:	cdb5                	beqz	a1,20f8 <.L1>
    207e:	557d                	li	a0,-1
    2080:	8082                	ret

0000000000002082 <.L4>:
    2082:	8f51                	or	a4,a4,a2

0000000000002084 <.LVL10>:
    2084:	eb3d                	bnez	a4,20fa <.L3>

0000000000002086 <.LBB9>:
    2086:	fed59ae3          	bne	a1,a3,207a <.L21>
    208a:	4501                	li	a0,0

000000000000208c <.LVL11>:
    208c:	8082                	ret

000000000000208e <.L2>:
    208e:	03c51463          	bne	a0,t3,20b6 <.L9>
    2092:	8f51                	or	a4,a4,a2

0000000000002094 <.LVL13>:
    2094:	e33d                	bnez	a4,20fa <.L3>

0000000000002096 <.LBB10>:
    2096:	00088863          	beqz	a7,20a6 <.L10>

000000000000209a <.L58>:
    209a:	fed590e3          	bne	a1,a3,207a <.L21>

000000000000209e <.L22>:
    209e:	557d                	li	a0,-1
    20a0:	cda1                	beqz	a1,20f8 <.L1>
    20a2:	852e                	mv	a0,a1
    20a4:	8082                	ret

00000000000020a6 <.L10>:
    20a6:	00686833          	or	a6,a6,t1

00000000000020aa <.LVL17>:
    20aa:	fe0818e3          	bnez	a6,209a <.L58>

00000000000020ae <.L12>:
    20ae:	557d                	li	a0,-1

00000000000020b0 <.LVL19>:
    20b0:	c6a1                	beqz	a3,20f8 <.L1>
    20b2:	8536                	mv	a0,a3
    20b4:	8082                	ret

00000000000020b6 <.L9>:
    20b6:	02088363          	beqz	a7,20dc <.L13>

00000000000020ba <.LVL21>:
    20ba:	d161                	beqz	a0,207a <.L21>

00000000000020bc <.LVL22>:
    20bc:	fad59fe3          	bne	a1,a3,207a <.L21>
    20c0:	fb154de3          	blt	a0,a7,207a <.L21>
    20c4:	fca8cde3          	blt	a7,a0,209e <.L22>

00000000000020c8 <.L20>:
    20c8:	fb0769e3          	bltu	a4,a6,207a <.L21>
    20cc:	fce819e3          	bne	a6,a4,209e <.L22>
    20d0:	fa6665e3          	bltu	a2,t1,207a <.L21>
    20d4:	4501                	li	a0,0

00000000000020d6 <.LVL24>:
    20d6:	02c37163          	bgeu	t1,a2,20f8 <.L1>
    20da:	b7d1                	j	209e <.L22>

00000000000020dc <.L13>:
    20dc:	006867b3          	or	a5,a6,t1

00000000000020e0 <.LVL26>:
    20e0:	c119                	beqz	a0,20e6 <.L15>

00000000000020e2 <.LVL27>:
    20e2:	d7f1                	beqz	a5,20ae <.L12>
    20e4:	bf5d                	j	209a <.L58>

00000000000020e6 <.L15>:
    20e6:	00c768b3          	or	a7,a4,a2

00000000000020ea <.LVL29>:
    20ea:	00088663          	beqz	a7,20f6 <.L16>

00000000000020ee <.LVL30>:
    20ee:	d3e1                	beqz	a5,20ae <.L12>

00000000000020f0 <.LVL31>:
    20f0:	fcd58ce3          	beq	a1,a3,20c8 <.L20>
    20f4:	b759                	j	207a <.L21>

00000000000020f6 <.L16>:
    20f6:	f3d1                	bnez	a5,207a <.L21>

00000000000020f8 <.L1>:
    20f8:	8082                	ret

00000000000020fa <.L3>:
    20fa:	00186073          	csrsi	fflags,16
    20fe:	5579                	li	a0,-2

0000000000002100 <.LVL35>:
    2100:	8082                	ret

0000000000002102 <__letf2>:
    2102:	832a                	mv	t1,a0
    2104:	002027f3          	frrm	a5

0000000000002108 <.LBB2>:
    2108:	6e21                	lui	t3,0x8
    210a:	0305d893          	srli	a7,a1,0x30
    210e:	1e7d                	addi	t3,t3,-1 # 7fff <.LLST3+0x2251>
    2110:	577d                	li	a4,-1
    2112:	8341                	srli	a4,a4,0x10

0000000000002114 <.LBB3>:
    2114:	0306d793          	srli	a5,a3,0x30

0000000000002118 <.LBB4>:
    2118:	01c8f8b3          	and	a7,a7,t3
    211c:	00e5f833          	and	a6,a1,a4

0000000000002120 <.LBB5>:
    2120:	01c7f533          	and	a0,a5,t3

0000000000002124 <.LVL3>:
    2124:	8f75                	and	a4,a4,a3

0000000000002126 <.LBB6>:
    2126:	91fd                	srli	a1,a1,0x3f

0000000000002128 <.LBB7>:
    2128:	92fd                	srli	a3,a3,0x3f

000000000000212a <.LBE7>:
    212a:	03c89263          	bne	a7,t3,214e <.L2>
    212e:	00686833          	or	a6,a6,t1

0000000000002132 <.LVL6>:
    2132:	08081463          	bnez	a6,21ba <.L3>
    2136:	01150663          	beq	a0,a7,2142 <.L4>

000000000000213a <.L21>:
    213a:	4505                	li	a0,1

000000000000213c <.LVL8>:
    213c:	cdb5                	beqz	a1,21b8 <.L1>
    213e:	557d                	li	a0,-1
    2140:	8082                	ret

0000000000002142 <.L4>:
    2142:	8f51                	or	a4,a4,a2

0000000000002144 <.LVL10>:
    2144:	eb3d                	bnez	a4,21ba <.L3>

0000000000002146 <.LBB9>:
    2146:	fed59ae3          	bne	a1,a3,213a <.L21>
    214a:	4501                	li	a0,0

000000000000214c <.LVL11>:
    214c:	8082                	ret

000000000000214e <.L2>:
    214e:	03c51463          	bne	a0,t3,2176 <.L9>
    2152:	8f51                	or	a4,a4,a2

0000000000002154 <.LVL13>:
    2154:	e33d                	bnez	a4,21ba <.L3>

0000000000002156 <.LBB10>:
    2156:	00088863          	beqz	a7,2166 <.L10>

000000000000215a <.L58>:
    215a:	fed590e3          	bne	a1,a3,213a <.L21>

000000000000215e <.L22>:
    215e:	557d                	li	a0,-1
    2160:	cda1                	beqz	a1,21b8 <.L1>
    2162:	852e                	mv	a0,a1
    2164:	8082                	ret

0000000000002166 <.L10>:
    2166:	00686833          	or	a6,a6,t1

000000000000216a <.LVL17>:
    216a:	fe0818e3          	bnez	a6,215a <.L58>

000000000000216e <.L12>:
    216e:	557d                	li	a0,-1

0000000000002170 <.LVL19>:
    2170:	c6a1                	beqz	a3,21b8 <.L1>
    2172:	8536                	mv	a0,a3
    2174:	8082                	ret

0000000000002176 <.L9>:
    2176:	02088363          	beqz	a7,219c <.L13>

000000000000217a <.LVL21>:
    217a:	d161                	beqz	a0,213a <.L21>

000000000000217c <.LVL22>:
    217c:	fad59fe3          	bne	a1,a3,213a <.L21>
    2180:	fb154de3          	blt	a0,a7,213a <.L21>
    2184:	fca8cde3          	blt	a7,a0,215e <.L22>

0000000000002188 <.L20>:
    2188:	fb0769e3          	bltu	a4,a6,213a <.L21>
    218c:	fce819e3          	bne	a6,a4,215e <.L22>
    2190:	fa6665e3          	bltu	a2,t1,213a <.L21>
    2194:	4501                	li	a0,0

0000000000002196 <.LVL24>:
    2196:	02c37163          	bgeu	t1,a2,21b8 <.L1>
    219a:	b7d1                	j	215e <.L22>

000000000000219c <.L13>:
    219c:	006867b3          	or	a5,a6,t1

00000000000021a0 <.LVL26>:
    21a0:	c119                	beqz	a0,21a6 <.L15>

00000000000021a2 <.LVL27>:
    21a2:	d7f1                	beqz	a5,216e <.L12>
    21a4:	bf5d                	j	215a <.L58>

00000000000021a6 <.L15>:
    21a6:	00c768b3          	or	a7,a4,a2

00000000000021aa <.LVL29>:
    21aa:	00088663          	beqz	a7,21b6 <.L16>

00000000000021ae <.LVL30>:
    21ae:	d3e1                	beqz	a5,216e <.L12>

00000000000021b0 <.LVL31>:
    21b0:	fcd58ce3          	beq	a1,a3,2188 <.L20>
    21b4:	b759                	j	213a <.L21>

00000000000021b6 <.L16>:
    21b6:	f3d1                	bnez	a5,213a <.L21>

00000000000021b8 <.L1>:
    21b8:	8082                	ret

00000000000021ba <.L3>:
    21ba:	00186073          	csrsi	fflags,16
    21be:	4509                	li	a0,2

00000000000021c0 <.LVL35>:
    21c0:	8082                	ret

00000000000021c2 <__multf3>:
    21c2:	711d                	addi	sp,sp,-96
    21c4:	e8a2                	sd	s0,80(sp)
    21c6:	f852                	sd	s4,48(sp)
    21c8:	e862                	sd	s8,16(sp)
    21ca:	ec86                	sd	ra,88(sp)
    21cc:	e4a6                	sd	s1,72(sp)
    21ce:	e0ca                	sd	s2,64(sp)
    21d0:	fc4e                	sd	s3,56(sp)
    21d2:	f456                	sd	s5,40(sp)
    21d4:	f05a                	sd	s6,32(sp)
    21d6:	ec5e                	sd	s7,24(sp)
    21d8:	e466                	sd	s9,8(sp)
    21da:	842a                	mv	s0,a0
    21dc:	8c32                	mv	s8,a2
    21de:	8a36                	mv	s4,a3
    21e0:	002029f3          	frrm	s3

00000000000021e4 <.LBB2>:
    21e4:	6721                	lui	a4,0x8
    21e6:	0305d793          	srli	a5,a1,0x30
    21ea:	177d                	addi	a4,a4,-1 # 7fff <.LLST3+0x2251>
    21ec:	01059913          	slli	s2,a1,0x10
    21f0:	8ff9                	and	a5,a5,a4

00000000000021f2 <.LBE2>:
    21f2:	2981                	sext.w	s3,s3

00000000000021f4 <.LBB3>:
    21f4:	01095913          	srli	s2,s2,0x10

00000000000021f8 <.LVL2>:
    21f8:	03f5da93          	srli	s5,a1,0x3f

00000000000021fc <.LBE3>:
    21fc:	c795                	beqz	a5,2228 <.L2>
    21fe:	00078c9b          	sext.w	s9,a5
    2202:	08e78863          	beq	a5,a4,2292 <.L3>

0000000000002206 <.LVL4>:
    2206:	090e                	slli	s2,s2,0x3

0000000000002208 <.LVL5>:
    2208:	03d55713          	srli	a4,a0,0x3d
    220c:	01276733          	or	a4,a4,s2
    2210:	7cf1                	lui	s9,0xffffc
    2212:	4905                	li	s2,1
    2214:	194e                	slli	s2,s2,0x33
    2216:	0c85                	addi	s9,s9,1 # ffffffffffffc001 <.LLST3+0xffffffffffff6253>
    2218:	01276933          	or	s2,a4,s2

000000000000221c <.LVL6>:
    221c:	00351b13          	slli	s6,a0,0x3

0000000000002220 <.LVL7>:
    2220:	9cbe                	add	s9,s9,a5

0000000000002222 <.L153>:
    2222:	4b81                	li	s7,0

0000000000002224 <.L142>:
    2224:	4481                	li	s1,0
    2226:	a051                	j	22aa <.L4>

0000000000002228 <.L2>:
    2228:	00a96b33          	or	s6,s2,a0
    222c:	0e0b0f63          	beqz	s6,232a <.L86>

0000000000002230 <.LBB10>:
    2230:	04090063          	beqz	s2,2270 <.L5>
    2234:	854a                	mv	a0,s2

0000000000002236 <.LVL11>:
    2236:	00000097          	auipc	ra,0x0
    223a:	000080e7          	jalr	ra # 2236 <.LVL11>

000000000000223e <.LVL12>:
    223e:	0005071b          	sext.w	a4,a0

0000000000002242 <.LVL13>:
    2242:	ff170793          	addi	a5,a4,-15

0000000000002246 <.L6>:
    2246:	03d00693          	li	a3,61
    224a:	0037861b          	addiw	a2,a5,3
    224e:	40f687bb          	subw	a5,a3,a5

0000000000002252 <.LVL15>:
    2252:	00c91933          	sll	s2,s2,a2

0000000000002256 <.LVL16>:
    2256:	00f457b3          	srl	a5,s0,a5
    225a:	0127e7b3          	or	a5,a5,s2

000000000000225e <.LVL17>:
    225e:	00c41933          	sll	s2,s0,a2

0000000000002262 <.L8>:
    2262:	7cf1                	lui	s9,0xffffc
    2264:	0cc5                	addi	s9,s9,17 # ffffffffffffc011 <.LLST3+0xffffffffffff6263>
    2266:	8b4a                	mv	s6,s2
    2268:	40ec8cb3          	sub	s9,s9,a4

000000000000226c <.LVL19>:
    226c:	893e                	mv	s2,a5

000000000000226e <.LVL20>:
    226e:	bf55                	j	2222 <.L153>

0000000000002270 <.L5>:
    2270:	00000097          	auipc	ra,0x0
    2274:	000080e7          	jalr	ra # 2270 <.L5>

0000000000002278 <.LVL22>:
    2278:	0405071b          	addiw	a4,a0,64

000000000000227c <.LVL23>:
    227c:	ff170793          	addi	a5,a4,-15

0000000000002280 <.LVL24>:
    2280:	03c00693          	li	a3,60
    2284:	fcf6d1e3          	bge	a3,a5,2246 <.L6>
    2288:	fc37879b          	addiw	a5,a5,-61

000000000000228c <.LVL25>:
    228c:	00f417b3          	sll	a5,s0,a5

0000000000002290 <.LVL26>:
    2290:	bfc9                	j	2262 <.L8>

0000000000002292 <.L3>:
    2292:	00a96b33          	or	s6,s2,a0
    2296:	080b0e63          	beqz	s6,2332 <.L87>

000000000000229a <.LVL28>:
    229a:	4485                	li	s1,1
    229c:	14be                	slli	s1,s1,0x2f
    229e:	009934b3          	sltu	s1,s2,s1
    22a2:	0044949b          	slliw	s1,s1,0x4
    22a6:	8b2a                	mv	s6,a0
    22a8:	4b8d                	li	s7,3

00000000000022aa <.L4>:
    22aa:	65a1                	lui	a1,0x8
    22ac:	030a5613          	srli	a2,s4,0x30
    22b0:	56fd                	li	a3,-1
    22b2:	15fd                	addi	a1,a1,-1 # 7fff <.LLST3+0x2251>
    22b4:	0106d413          	srli	s0,a3,0x10
    22b8:	8e6d                	and	a2,a2,a1
    22ba:	008a7433          	and	s0,s4,s0
    22be:	87e2                	mv	a5,s8

00000000000022c0 <.LVL30>:
    22c0:	03fa5a13          	srli	s4,s4,0x3f

00000000000022c4 <.LBE11>:
    22c4:	ca35                	beqz	a2,2338 <.L9>
    22c6:	0006071b          	sext.w	a4,a2
    22ca:	0cb60963          	beq	a2,a1,239c <.L10>

00000000000022ce <.LVL32>:
    22ce:	040e                	slli	s0,s0,0x3

00000000000022d0 <.LVL33>:
    22d0:	03dc5713          	srli	a4,s8,0x3d
    22d4:	8f41                	or	a4,a4,s0
    22d6:	4405                	li	s0,1
    22d8:	144e                	slli	s0,s0,0x33
    22da:	8c59                	or	s0,s0,a4

00000000000022dc <.LVL34>:
    22dc:	7771                	lui	a4,0xffffc
    22de:	0705                	addi	a4,a4,1 # ffffffffffffc001 <.LLST3+0xffffffffffff6253>
    22e0:	003c1793          	slli	a5,s8,0x3
    22e4:	9732                	add	a4,a4,a2

00000000000022e6 <.L143>:
    22e6:	4881                	li	a7,0

00000000000022e8 <.L11>:
    22e8:	002b9693          	slli	a3,s7,0x2
    22ec:	01970833          	add	a6,a4,s9
    22f0:	0116e6b3          	or	a3,a3,a7
    22f4:	4729                	li	a4,10

00000000000022f6 <.LVL38>:
    22f6:	014ac633          	xor	a2,s5,s4

00000000000022fa <.LVL39>:
    22fa:	00180593          	addi	a1,a6,1

00000000000022fe <.LVL40>:
    22fe:	2cd74563          	blt	a4,a3,25c8 <.L16>
    2302:	4709                	li	a4,2
    2304:	0ad74e63          	blt	a4,a3,23c0 <.L17>
    2308:	16fd                	addi	a3,a3,-1
    230a:	4705                	li	a4,1
    230c:	0cd76963          	bltu	a4,a3,23de <.L18>

0000000000002310 <.L144>:
    2310:	8bc6                	mv	s7,a7

0000000000002312 <.L19>:
    2312:	4709                	li	a4,2
    2314:	4ceb8463          	beq	s7,a4,27dc <.L97>
    2318:	470d                	li	a4,3
    231a:	4ceb8663          	beq	s7,a4,27e6 <.L98>
    231e:	4705                	li	a4,1
    2320:	26eb9663          	bne	s7,a4,258c <.L45>
    2324:	4701                	li	a4,0
    2326:	4501                	li	a0,0
    2328:	a959                	j	27be <.L152>

000000000000232a <.L86>:
    232a:	4901                	li	s2,0

000000000000232c <.LVL44>:
    232c:	4c81                	li	s9,0

000000000000232e <.LBE17>:
    232e:	4b85                	li	s7,1
    2330:	bdd5                	j	2224 <.L142>

0000000000002332 <.L87>:
    2332:	4901                	li	s2,0

0000000000002334 <.LBE18>:
    2334:	4b89                	li	s7,2
    2336:	b5fd                	j	2224 <.L142>

0000000000002338 <.L9>:
    2338:	008c67b3          	or	a5,s8,s0

000000000000233c <.LVL48>:
    233c:	cbad                	beqz	a5,23ae <.L88>

000000000000233e <.LBB19>:
    233e:	cc0d                	beqz	s0,2378 <.L12>
    2340:	8522                	mv	a0,s0
    2342:	00000097          	auipc	ra,0x0
    2346:	000080e7          	jalr	ra # 2342 <.LBB19+0x4>

000000000000234a <.LVL49>:
    234a:	2501                	sext.w	a0,a0

000000000000234c <.LVL50>:
    234c:	ff150793          	addi	a5,a0,-15

0000000000002350 <.L13>:
    2350:	03d00713          	li	a4,61
    2354:	0037861b          	addiw	a2,a5,3
    2358:	40f707bb          	subw	a5,a4,a5

000000000000235c <.LVL52>:
    235c:	00c41433          	sll	s0,s0,a2

0000000000002360 <.LVL53>:
    2360:	00fc57b3          	srl	a5,s8,a5
    2364:	0087e6b3          	or	a3,a5,s0

0000000000002368 <.LVL54>:
    2368:	00cc1433          	sll	s0,s8,a2

000000000000236c <.L15>:
    236c:	7771                	lui	a4,0xffffc
    236e:	0745                	addi	a4,a4,17 # ffffffffffffc011 <.LLST3+0xffffffffffff6263>
    2370:	87a2                	mv	a5,s0
    2372:	8f09                	sub	a4,a4,a0

0000000000002374 <.LVL56>:
    2374:	8436                	mv	s0,a3

0000000000002376 <.LVL57>:
    2376:	bf85                	j	22e6 <.L143>

0000000000002378 <.L12>:
    2378:	8562                	mv	a0,s8
    237a:	00000097          	auipc	ra,0x0
    237e:	000080e7          	jalr	ra # 237a <.L12+0x2>

0000000000002382 <.LVL59>:
    2382:	0405051b          	addiw	a0,a0,64

0000000000002386 <.LVL60>:
    2386:	ff150793          	addi	a5,a0,-15

000000000000238a <.LVL61>:
    238a:	03c00713          	li	a4,60
    238e:	fcf751e3          	bge	a4,a5,2350 <.L13>
    2392:	fc37879b          	addiw	a5,a5,-61

0000000000002396 <.LVL62>:
    2396:	00fc16b3          	sll	a3,s8,a5

000000000000239a <.LVL63>:
    239a:	bfc9                	j	236c <.L15>

000000000000239c <.L10>:
    239c:	008c6633          	or	a2,s8,s0

00000000000023a0 <.LVL65>:
    23a0:	ce01                	beqz	a2,23b8 <.L89>

00000000000023a2 <.LVL66>:
    23a2:	82c5                	srli	a3,a3,0x11
    23a4:	488d                	li	a7,3
    23a6:	f486e1e3          	bltu	a3,s0,22e8 <.L11>
    23aa:	44c1                	li	s1,16

00000000000023ac <.LVL67>:
    23ac:	bf35                	j	22e8 <.L11>

00000000000023ae <.L88>:
    23ae:	4401                	li	s0,0

00000000000023b0 <.LVL69>:
    23b0:	4781                	li	a5,0
    23b2:	4701                	li	a4,0

00000000000023b4 <.LBE20>:
    23b4:	4885                	li	a7,1
    23b6:	bf0d                	j	22e8 <.L11>

00000000000023b8 <.L89>:
    23b8:	4401                	li	s0,0

00000000000023ba <.LVL71>:
    23ba:	4781                	li	a5,0

00000000000023bc <.LBE21>:
    23bc:	4889                	li	a7,2
    23be:	b72d                	j	22e8 <.L11>

00000000000023c0 <.L17>:
    23c0:	4705                	li	a4,1
    23c2:	00d716b3          	sll	a3,a4,a3
    23c6:	5306f513          	andi	a0,a3,1328
    23ca:	20051863          	bnez	a0,25da <.L91>
    23ce:	2406f313          	andi	t1,a3,576
    23d2:	3e031f63          	bnez	t1,27d0 <.L92>
    23d6:	0886f693          	andi	a3,a3,136
    23da:	1e069e63          	bnez	a3,25d6 <.L21>

00000000000023de <.L18>:
    23de:	56fd                	li	a3,-1
    23e0:	9281                	srli	a3,a3,0x20
    23e2:	00878f33          	add	t5,a5,s0

00000000000023e6 <.LBB24>:
    23e6:	020b5513          	srli	a0,s6,0x20
    23ea:	0207d313          	srli	t1,a5,0x20
    23ee:	01690fb3          	add	t6,s2,s6

00000000000023f2 <.LBE24>:
    23f2:	00ff3eb3          	sltu	t4,t5,a5
    23f6:	00db7b33          	and	s6,s6,a3

00000000000023fa <.LVL76>:
    23fa:	8ff5                	and	a5,a5,a3

00000000000023fc <.LBB25>:
    23fc:	036782b3          	mul	t0,a5,s6

0000000000002400 <.LBE25>:
    2400:	012fbe33          	sltu	t3,t6,s2
    2404:	88f2                	mv	a7,t3

0000000000002406 <.LVL78>:
    2406:	8776                	mv	a4,t4

0000000000002408 <.LBB26>:
    2408:	02f507b3          	mul	a5,a0,a5

000000000000240c <.LVL80>:
    240c:	026506b3          	mul	a3,a0,t1

0000000000002410 <.LVL81>:
    2410:	0202d513          	srli	a0,t0,0x20

0000000000002414 <.LVL82>:
    2414:	03630333          	mul	t1,t1,s6

0000000000002418 <.LVL83>:
    2418:	933e                	add	t1,t1,a5

000000000000241a <.LVL84>:
    241a:	951a                	add	a0,a0,t1

000000000000241c <.LVL85>:
    241c:	00f57563          	bgeu	a0,a5,2426 <.L26>
    2420:	4785                	li	a5,1

0000000000002422 <.LVL86>:
    2422:	1782                	slli	a5,a5,0x20
    2424:	96be                	add	a3,a3,a5

0000000000002426 <.L26>:
    2426:	57fd                	li	a5,-1
    2428:	9381                	srli	a5,a5,0x20
    242a:	02055313          	srli	t1,a0,0x20
    242e:	8d7d                	and	a0,a0,a5

0000000000002430 <.LVL88>:
    2430:	00f2f2b3          	and	t0,t0,a5

0000000000002434 <.LVL89>:
    2434:	1502                	slli	a0,a0,0x20
    2436:	00fff3b3          	and	t2,t6,a5
    243a:	9336                	add	t1,t1,a3

000000000000243c <.LVL90>:
    243c:	00ff77b3          	and	a5,t5,a5

0000000000002440 <.LBB27>:
    2440:	020f5693          	srli	a3,t5,0x20

0000000000002444 <.LBB28>:
    2444:	9516                	add	a0,a0,t0

0000000000002446 <.LBB29>:
    2446:	020fd293          	srli	t0,t6,0x20

000000000000244a <.LVL93>:
    244a:	02778ab3          	mul	s5,a5,t2

000000000000244e <.LVL94>:
    244e:	02f287b3          	mul	a5,t0,a5

0000000000002452 <.LVL95>:
    2452:	020ada13          	srli	s4,s5,0x20

0000000000002456 <.LVL96>:
    2456:	02d282b3          	mul	t0,t0,a3

000000000000245a <.LVL97>:
    245a:	027686b3          	mul	a3,a3,t2
    245e:	96be                	add	a3,a3,a5

0000000000002460 <.LVL98>:
    2460:	9a36                	add	s4,s4,a3

0000000000002462 <.LVL99>:
    2462:	00fa7563          	bgeu	s4,a5,246c <.L27>
    2466:	4785                	li	a5,1

0000000000002468 <.LVL100>:
    2468:	1782                	slli	a5,a5,0x20
    246a:	92be                	add	t0,t0,a5

000000000000246c <.L27>:
    246c:	57fd                	li	a5,-1

000000000000246e <.LVL102>:
    246e:	9381                	srli	a5,a5,0x20

0000000000002470 <.LVL103>:
    2470:	020a5393          	srli	t2,s4,0x20
    2474:	00fa7a33          	and	s4,s4,a5

0000000000002478 <.LVL104>:
    2478:	00fafab3          	and	s5,s5,a5

000000000000247c <.LVL105>:
    247c:	1a02                	slli	s4,s4,0x20

000000000000247e <.LBB30>:
    247e:	02045693          	srli	a3,s0,0x20

0000000000002482 <.LBB31>:
    2482:	9a56                	add	s4,s4,s5

0000000000002484 <.LBB32>:
    2484:	02095a93          	srli	s5,s2,0x20

0000000000002488 <.LVL108>:
    2488:	00f97933          	and	s2,s2,a5

000000000000248c <.LVL109>:
    248c:	8fe1                	and	a5,a5,s0
    248e:	02f90b33          	mul	s6,s2,a5

0000000000002492 <.LVL110>:
    2492:	02fa87b3          	mul	a5,s5,a5

0000000000002496 <.LVL111>:
    2496:	020b5413          	srli	s0,s6,0x20

000000000000249a <.LVL112>:
    249a:	02da8ab3          	mul	s5,s5,a3

000000000000249e <.LVL113>:
    249e:	032686b3          	mul	a3,a3,s2

00000000000024a2 <.LVL114>:
    24a2:	96be                	add	a3,a3,a5

00000000000024a4 <.LVL115>:
    24a4:	9436                	add	s0,s0,a3

00000000000024a6 <.LVL116>:
    24a6:	00f47563          	bgeu	s0,a5,24b0 <.L28>
    24aa:	4785                	li	a5,1

00000000000024ac <.LVL117>:
    24ac:	1782                	slli	a5,a5,0x20
    24ae:	9abe                	add	s5,s5,a5

00000000000024b0 <.L28>:
    24b0:	597d                	li	s2,-1

00000000000024b2 <.LVL119>:
    24b2:	02095913          	srli	s2,s2,0x20

00000000000024b6 <.LVL120>:
    24b6:	02045693          	srli	a3,s0,0x20
    24ba:	012477b3          	and	a5,s0,s2

00000000000024be <.LBE32>:
    24be:	40e00733          	neg	a4,a4
    24c2:	006a0433          	add	s0,s4,t1

00000000000024c6 <.LVL121>:
    24c6:	01f77733          	and	a4,a4,t6
    24ca:	411008b3          	neg	a7,a7

00000000000024ce <.LBB33>:
    24ce:	01443fb3          	sltu	t6,s0,s4

00000000000024d2 <.LBE33>:
    24d2:	01e8f8b3          	and	a7,a7,t5

00000000000024d6 <.LBB34>:
    24d6:	01f38f33          	add	t5,t2,t6

00000000000024da <.LVL123>:
    24da:	9f16                	add	t5,t5,t0
    24dc:	01de7e33          	and	t3,t3,t4

00000000000024e0 <.LVL124>:
    24e0:	01ff3fb3          	sltu	t6,t5,t6
    24e4:	977a                	add	a4,a4,t5
    24e6:	9ff2                	add	t6,t6,t3

00000000000024e8 <.LBB35>:
    24e8:	01e73f33          	sltu	t5,a4,t5
    24ec:	9746                	add	a4,a4,a7
    24ee:	9f7e                	add	t5,t5,t6

00000000000024f0 <.LBB36>:
    24f0:	011738b3          	sltu	a7,a4,a7
    24f4:	40a40eb3          	sub	t4,s0,a0

00000000000024f8 <.LVL125>:
    24f8:	40670e33          	sub	t3,a4,t1

00000000000024fc <.LBB37>:
    24fc:	1782                	slli	a5,a5,0x20
    24fe:	012b7b33          	and	s6,s6,s2

0000000000002502 <.LBB38>:
    2502:	98fa                	add	a7,a7,t5

0000000000002504 <.LBB39>:
    2504:	01d43f33          	sltu	t5,s0,t4
    2508:	01c73fb3          	sltu	t6,a4,t3

000000000000250c <.LBB43>:
    250c:	96d6                	add	a3,a3,s5

000000000000250e <.LBB44>:
    250e:	41ee0e33          	sub	t3,t3,t5

0000000000002512 <.LBB45>:
    2512:	97da                	add	a5,a5,s6

0000000000002514 <.LBB46>:
    2514:	4f01                	li	t5,0
    2516:	01d47663          	bgeu	s0,t4,2522 <.L39>
    251a:	40e30333          	sub	t1,t1,a4

000000000000251e <.LVL129>:
    251e:	00133f13          	seqz	t5,t1

0000000000002522 <.L39>:
    2522:	01ff6f33          	or	t5,t5,t6

0000000000002526 <.LVL130>:
    2526:	40fe8fb3          	sub	t6,t4,a5
    252a:	98b6                	add	a7,a7,a3

000000000000252c <.LBB50>:
    252c:	01feb733          	sltu	a4,t4,t6

0000000000002530 <.LVL132>:
    2530:	40de06b3          	sub	a3,t3,a3

0000000000002534 <.LVL133>:
    2534:	00de3e33          	sltu	t3,t3,a3

0000000000002538 <.LVL134>:
    2538:	40e78733          	sub	a4,a5,a4

000000000000253c <.LVL135>:
    253c:	4301                	li	t1,0
    253e:	01fef463          	bgeu	t4,t6,2546 <.L44>
    2542:	0016b313          	seqz	t1,a3

0000000000002546 <.L44>:
    2546:	96ba                	add	a3,a3,a4

0000000000002548 <.LBB54>:
    2548:	00f6b733          	sltu	a4,a3,a5
    254c:	9746                	add	a4,a4,a7
    254e:	41e70733          	sub	a4,a4,t5

0000000000002552 <.LBB55>:
    2552:	01c36333          	or	t1,t1,t3

0000000000002556 <.LBB56>:
    2556:	40670733          	sub	a4,a4,t1

000000000000255a <.LBB59>:
    255a:	00df9793          	slli	a5,t6,0xd

000000000000255e <.LVL139>:
    255e:	0736                	slli	a4,a4,0xd
    2560:	0336d413          	srli	s0,a3,0x33

0000000000002564 <.LVL140>:
    2564:	8fc9                	or	a5,a5,a0

0000000000002566 <.LVL141>:
    2566:	8c59                	or	s0,s0,a4

0000000000002568 <.LBB60>:
    2568:	00f037b3          	snez	a5,a5

000000000000256c <.LVL143>:
    256c:	033fd513          	srli	a0,t6,0x33

0000000000002570 <.LBE22>:
    2570:	9351                	srli	a4,a4,0x34

0000000000002572 <.LBB64>:
    2572:	8fc9                	or	a5,a5,a0

0000000000002574 <.LBB61>:
    2574:	06b6                	slli	a3,a3,0xd

0000000000002576 <.LBE61>:
    2576:	8b05                	andi	a4,a4,1

0000000000002578 <.LBB65>:
    2578:	8fd5                	or	a5,a5,a3

000000000000257a <.LBE65>:
    257a:	c33d                	beqz	a4,25e0 <.L96>
    257c:	0017d713          	srli	a4,a5,0x1
    2580:	8b85                	andi	a5,a5,1

0000000000002582 <.LVL147>:
    2582:	8f5d                	or	a4,a4,a5
    2584:	03f41793          	slli	a5,s0,0x3f
    2588:	8fd9                	or	a5,a5,a4

000000000000258a <.LVL148>:
    258a:	8005                	srli	s0,s0,0x1

000000000000258c <.L45>:
    258c:	6691                	lui	a3,0x4
    258e:	16fd                	addi	a3,a3,-1 # 3fff <.LLST15+0x2b1>
    2590:	96ae                	add	a3,a3,a1

0000000000002592 <.LVL150>:
    2592:	0ed05063          	blez	a3,2672 <.L46>
    2596:	0077f713          	andi	a4,a5,7
    259a:	cb31                	beqz	a4,25ee <.L47>
    259c:	4709                	li	a4,2
    259e:	0014e493          	ori	s1,s1,1

00000000000025a2 <.LVL151>:
    25a2:	04e98563          	beq	s3,a4,25ec <.L48>
    25a6:	470d                	li	a4,3
    25a8:	02e98e63          	beq	s3,a4,25e4 <.L49>
    25ac:	04099163          	bnez	s3,25ee <.L47>
    25b0:	00f7f713          	andi	a4,a5,15
    25b4:	4511                	li	a0,4
    25b6:	02a70c63          	beq	a4,a0,25ee <.L47>

00000000000025ba <.LBB69>:
    25ba:	00478713          	addi	a4,a5,4

00000000000025be <.L145>:
    25be:	00f73533          	sltu	a0,a4,a5

00000000000025c2 <.LBB70>:
    25c2:	942a                	add	s0,s0,a0
    25c4:	87ba                	mv	a5,a4

00000000000025c6 <.LVL152>:
    25c6:	a025                	j	25ee <.L47>

00000000000025c8 <.L16>:
    25c8:	473d                	li	a4,15
    25ca:	20e68e63          	beq	a3,a4,27e6 <.L98>
    25ce:	472d                	li	a4,11

00000000000025d0 <.LBB71>:
    25d0:	8656                	mv	a2,s5

00000000000025d2 <.LBE71>:
    25d2:	00e69463          	bne	a3,a4,25da <.L91>

00000000000025d6 <.L21>:
    25d6:	8652                	mv	a2,s4
    25d8:	bb25                	j	2310 <.L144>

00000000000025da <.L91>:
    25da:	844a                	mv	s0,s2

00000000000025dc <.LVL157>:
    25dc:	87da                	mv	a5,s6

00000000000025de <.LVL158>:
    25de:	bb15                	j	2312 <.L19>

00000000000025e0 <.L96>:
    25e0:	85c2                	mv	a1,a6

00000000000025e2 <.LVL160>:
    25e2:	b76d                	j	258c <.L45>

00000000000025e4 <.L49>:
    25e4:	e609                	bnez	a2,25ee <.L47>

00000000000025e6 <.L146>:
    25e6:	00878713          	addi	a4,a5,8
    25ea:	bfd1                	j	25be <.L145>

00000000000025ec <.L48>:
    25ec:	fe6d                	bnez	a2,25e6 <.L146>

00000000000025ee <.L47>:
    25ee:	03445713          	srli	a4,s0,0x34
    25f2:	8b05                	andi	a4,a4,1
    25f4:	c719                	beqz	a4,2602 <.L56>
    25f6:	577d                	li	a4,-1
    25f8:	1752                	slli	a4,a4,0x34
    25fa:	177d                	addi	a4,a4,-1
    25fc:	6691                	lui	a3,0x4

00000000000025fe <.LVL163>:
    25fe:	8c79                	and	s0,s0,a4

0000000000002600 <.LVL164>:
    2600:	96ae                	add	a3,a3,a1

0000000000002602 <.L56>:
    2602:	65a1                	lui	a1,0x8
    2604:	ffe58713          	addi	a4,a1,-2 # 7ffe <.LLST3+0x2250>
    2608:	04d74063          	blt	a4,a3,2648 <.L57>
    260c:	838d                	srli	a5,a5,0x3

000000000000260e <.LVL166>:
    260e:	03d41513          	slli	a0,s0,0x3d

0000000000002612 <.LVL167>:
    2612:	8d5d                	or	a0,a0,a5

0000000000002614 <.LVL168>:
    2614:	00345713          	srli	a4,s0,0x3

0000000000002618 <.L20>:
    2618:	00f6161b          	slliw	a2,a2,0xf
    261c:	01071593          	slli	a1,a4,0x10
    2620:	8ed1                	or	a3,a3,a2
    2622:	16c2                	slli	a3,a3,0x30
    2624:	81c1                	srli	a1,a1,0x10
    2626:	8dd5                	or	a1,a1,a3

0000000000002628 <.LBE76>:
    2628:	c099                	beqz	s1,262e <.L1>
    262a:	0014a073          	csrs	fflags,s1

000000000000262e <.L1>:
    262e:	60e6                	ld	ra,88(sp)
    2630:	6446                	ld	s0,80(sp)
    2632:	64a6                	ld	s1,72(sp)

0000000000002634 <.LVL171>:
    2634:	6906                	ld	s2,64(sp)
    2636:	79e2                	ld	s3,56(sp)

0000000000002638 <.LVL172>:
    2638:	7a42                	ld	s4,48(sp)
    263a:	7aa2                	ld	s5,40(sp)
    263c:	7b02                	ld	s6,32(sp)
    263e:	6be2                	ld	s7,24(sp)
    2640:	6c42                	ld	s8,16(sp)
    2642:	6ca2                	ld	s9,8(sp)

0000000000002644 <.LVL173>:
    2644:	6125                	addi	sp,sp,96
    2646:	8082                	ret

0000000000002648 <.L57>:
    2648:	4789                	li	a5,2

000000000000264a <.LVL175>:
    264a:	02f98263          	beq	s3,a5,266e <.L58>
    264e:	478d                	li	a5,3
    2650:	00f98763          	beq	s3,a5,265e <.L59>
    2654:	00098663          	beqz	s3,2660 <.L100>

0000000000002658 <.L102>:
    2658:	557d                	li	a0,-1

000000000000265a <.LVL176>:
    265a:	86ba                	mv	a3,a4
    265c:	a029                	j	2666 <.L60>

000000000000265e <.L59>:
    265e:	fe6d                	bnez	a2,2658 <.L102>

0000000000002660 <.L100>:
    2660:	4501                	li	a0,0

0000000000002662 <.LVL178>:
    2662:	fff58693          	addi	a3,a1,-1

0000000000002666 <.L60>:
    2666:	0054e493          	ori	s1,s1,5

000000000000266a <.LVL180>:
    266a:	872a                	mv	a4,a0
    266c:	b775                	j	2618 <.L20>

000000000000266e <.L58>:
    266e:	d66d                	beqz	a2,2658 <.L102>
    2670:	bfc5                	j	2660 <.L100>

0000000000002672 <.L46>:
    2672:	e2c5                	bnez	a3,2712 <.L61>

0000000000002674 <.LBB78>:
    2674:	0077f693          	andi	a3,a5,7

0000000000002678 <.LVL184>:
    2678:	8722                	mv	a4,s0
    267a:	ce8d                	beqz	a3,26b4 <.L62>
    267c:	4689                	li	a3,2
    267e:	0014e493          	ori	s1,s1,1

0000000000002682 <.LVL185>:
    2682:	02d98863          	beq	s3,a3,26b2 <.L63>
    2686:	468d                	li	a3,3
    2688:	02d98163          	beq	s3,a3,26aa <.L64>
    268c:	02099463          	bnez	s3,26b4 <.L62>
    2690:	00f7f693          	andi	a3,a5,15
    2694:	4591                	li	a1,4

0000000000002696 <.LVL186>:
    2696:	00b68f63          	beq	a3,a1,26b4 <.L62>

000000000000269a <.LBB79>:
    269a:	ffc7b713          	sltiu	a4,a5,-4

000000000000269e <.L147>:
    269e:	00174713          	xori	a4,a4,1
    26a2:	1702                	slli	a4,a4,0x20
    26a4:	9301                	srli	a4,a4,0x20
    26a6:	9722                	add	a4,a4,s0

00000000000026a8 <.LVL189>:
    26a8:	a031                	j	26b4 <.L62>

00000000000026aa <.L64>:
    26aa:	e609                	bnez	a2,26b4 <.L62>

00000000000026ac <.L148>:
    26ac:	ff87b713          	sltiu	a4,a5,-8
    26b0:	b7fd                	j	269e <.L147>

00000000000026b2 <.L63>:
    26b2:	fe6d                	bnez	a2,26ac <.L148>

00000000000026b4 <.L62>:
    26b4:	9351                	srli	a4,a4,0x34

00000000000026b6 <.LVL194>:
    26b6:	00174713          	xori	a4,a4,1
    26ba:	00177593          	andi	a1,a4,1
    26be:	4705                	li	a4,1

00000000000026c0 <.L65>:
    26c0:	04000693          	li	a3,64
    26c4:	9e99                	subw	a3,a3,a4
    26c6:	00d41533          	sll	a0,s0,a3
    26ca:	00e7d833          	srl	a6,a5,a4
    26ce:	00d796b3          	sll	a3,a5,a3
    26d2:	01056533          	or	a0,a0,a6
    26d6:	00d036b3          	snez	a3,a3
    26da:	8d55                	or	a0,a0,a3

00000000000026dc <.LVL196>:
    26dc:	00e45733          	srl	a4,s0,a4

00000000000026e0 <.L68>:
    26e0:	00757793          	andi	a5,a0,7
    26e4:	cfbd                	beqz	a5,2762 <.L70>
    26e6:	4789                	li	a5,2
    26e8:	0014e493          	ori	s1,s1,1

00000000000026ec <.LVL198>:
    26ec:	06f98a63          	beq	s3,a5,2760 <.L71>
    26f0:	478d                	li	a5,3
    26f2:	06f98363          	beq	s3,a5,2758 <.L72>
    26f6:	06099663          	bnez	s3,2762 <.L70>
    26fa:	00f57793          	andi	a5,a0,15
    26fe:	4691                	li	a3,4
    2700:	06d78163          	beq	a5,a3,2762 <.L70>

0000000000002704 <.LBB83>:
    2704:	00450793          	addi	a5,a0,4

0000000000002708 <.L149>:
    2708:	00a7b6b3          	sltu	a3,a5,a0

000000000000270c <.LBB84>:
    270c:	9736                	add	a4,a4,a3

000000000000270e <.LVL199>:
    270e:	853e                	mv	a0,a5

0000000000002710 <.LVL200>:
    2710:	a889                	j	2762 <.L70>

0000000000002712 <.L61>:
    2712:	4705                	li	a4,1
    2714:	8f15                	sub	a4,a4,a3

0000000000002716 <.LVL202>:
    2716:	07400693          	li	a3,116
    271a:	06e6cf63          	blt	a3,a4,2798 <.L66>
    271e:	03f00693          	li	a3,63
    2722:	0007059b          	sext.w	a1,a4
    2726:	00e6c463          	blt	a3,a4,272e <.L67>
    272a:	4585                	li	a1,1
    272c:	bf51                	j	26c0 <.L65>

000000000000272e <.L67>:
    272e:	fc05851b          	addiw	a0,a1,-64
    2732:	04000813          	li	a6,64
    2736:	00a45533          	srl	a0,s0,a0
    273a:	4681                	li	a3,0
    273c:	01070763          	beq	a4,a6,274a <.L69>
    2740:	08000693          	li	a3,128
    2744:	9e8d                	subw	a3,a3,a1
    2746:	00d416b3          	sll	a3,s0,a3

000000000000274a <.L69>:
    274a:	8edd                	or	a3,a3,a5
    274c:	00d036b3          	snez	a3,a3
    2750:	8d55                	or	a0,a0,a3

0000000000002752 <.LVL203>:
    2752:	4585                	li	a1,1
    2754:	4701                	li	a4,0

0000000000002756 <.LVL204>:
    2756:	b769                	j	26e0 <.L68>

0000000000002758 <.L72>:
    2758:	e609                	bnez	a2,2762 <.L70>

000000000000275a <.L150>:
    275a:	00850793          	addi	a5,a0,8
    275e:	b76d                	j	2708 <.L149>

0000000000002760 <.L71>:
    2760:	fe6d                	bnez	a2,275a <.L150>

0000000000002762 <.L70>:
    2762:	03375793          	srli	a5,a4,0x33
    2766:	8b85                	andi	a5,a5,1
    2768:	cb99                	beqz	a5,277e <.L79>

000000000000276a <.LVL207>:
    276a:	0014e493          	ori	s1,s1,1
    276e:	4701                	li	a4,0
    2770:	4501                	li	a0,0
    2772:	4685                	li	a3,1
    2774:	ea0582e3          	beqz	a1,2618 <.L20>

0000000000002778 <.L80>:
    2778:	0024e493          	ori	s1,s1,2
    277c:	bd71                	j	2618 <.L20>

000000000000277e <.L79>:
    277e:	03d71793          	slli	a5,a4,0x3d
    2782:	810d                	srli	a0,a0,0x3

0000000000002784 <.LVL212>:
    2784:	8d5d                	or	a0,a0,a5

0000000000002786 <.LVL213>:
    2786:	830d                	srli	a4,a4,0x3
    2788:	4681                	li	a3,0
    278a:	e80587e3          	beqz	a1,2618 <.L20>
    278e:	0014f793          	andi	a5,s1,1
    2792:	e80783e3          	beqz	a5,2618 <.L20>
    2796:	b7cd                	j	2778 <.L80>

0000000000002798 <.L66>:
    2798:	0087e533          	or	a0,a5,s0
    279c:	cd11                	beqz	a0,27b8 <.L81>

000000000000279e <.LVL216>:
    279e:	4789                	li	a5,2
    27a0:	0014e493          	ori	s1,s1,1
    27a4:	02f98363          	beq	s3,a5,27ca <.L82>
    27a8:	478d                	li	a5,3
    27aa:	00f98c63          	beq	s3,a5,27c2 <.L83>
    27ae:	4515                	li	a0,5
    27b0:	00098363          	beqz	s3,27b6 <.L84>
    27b4:	4505                	li	a0,1

00000000000027b6 <.L84>:
    27b6:	810d                	srli	a0,a0,0x3

00000000000027b8 <.L81>:
    27b8:	0024e493          	ori	s1,s1,2
    27bc:	4701                	li	a4,0

00000000000027be <.L152>:
    27be:	4681                	li	a3,0
    27c0:	bda1                	j	2618 <.L20>

00000000000027c2 <.L83>:
    27c2:	4505                	li	a0,1
    27c4:	fa6d                	bnez	a2,27b6 <.L84>

00000000000027c6 <.L151>:
    27c6:	4525                	li	a0,9
    27c8:	b7fd                	j	27b6 <.L84>

00000000000027ca <.L82>:
    27ca:	4505                	li	a0,1
    27cc:	d66d                	beqz	a2,27b6 <.L84>
    27ce:	bfe5                	j	27c6 <.L151>

00000000000027d0 <.L92>:
    27d0:	66a1                	lui	a3,0x8
    27d2:	173e                	slli	a4,a4,0x2f
    27d4:	16fd                	addi	a3,a3,-1 # 7fff <.LLST3+0x2251>

00000000000027d6 <.LVL224>:
    27d6:	4601                	li	a2,0
    27d8:	44c1                	li	s1,16

00000000000027da <.LVL225>:
    27da:	bd3d                	j	2618 <.L20>

00000000000027dc <.L97>:
    27dc:	66a1                	lui	a3,0x8
    27de:	4701                	li	a4,0
    27e0:	4501                	li	a0,0
    27e2:	16fd                	addi	a3,a3,-1 # 7fff <.LLST3+0x2251>
    27e4:	bd15                	j	2618 <.L20>

00000000000027e6 <.L98>:
    27e6:	4705                	li	a4,1
    27e8:	66a1                	lui	a3,0x8
    27ea:	173e                	slli	a4,a4,0x2f
    27ec:	4501                	li	a0,0
    27ee:	16fd                	addi	a3,a3,-1 # 7fff <.LLST3+0x2251>

00000000000027f0 <.LVL228>:
    27f0:	4601                	li	a2,0
    27f2:	b51d                	j	2618 <.L20>

00000000000027f4 <__subtf3>:
    27f4:	7179                	addi	sp,sp,-48
    27f6:	f406                	sd	ra,40(sp)
    27f8:	f022                	sd	s0,32(sp)
    27fa:	ec26                	sd	s1,24(sp)
    27fc:	e84a                	sd	s2,16(sp)
    27fe:	e44e                	sd	s3,8(sp)
    2800:	e052                	sd	s4,0(sp)
    2802:	00202973          	frrm	s2

0000000000002806 <.LBB2>:
    2806:	537d                	li	t1,-1
    2808:	01035313          	srli	t1,t1,0x10
    280c:	0305d413          	srli	s0,a1,0x30
    2810:	68a1                	lui	a7,0x8
    2812:	03f5d493          	srli	s1,a1,0x3f
    2816:	0065f5b3          	and	a1,a1,t1

000000000000281a <.LBE2>:
    281a:	00359793          	slli	a5,a1,0x3

000000000000281e <.LBB4>:
    281e:	18fd                	addi	a7,a7,-1 # 7fff <.LLST3+0x2251>

0000000000002820 <.LBE4>:
    2820:	03d55593          	srli	a1,a0,0x3d

0000000000002824 <.LBB6>:
    2824:	0306d713          	srli	a4,a3,0x30
    2828:	03f6d813          	srli	a6,a3,0x3f
    282c:	0066f6b3          	and	a3,a3,t1

0000000000002830 <.LBE6>:
    2830:	8ddd                	or	a1,a1,a5

0000000000002832 <.LBB8>:
    2832:	01177733          	and	a4,a4,a7

0000000000002836 <.LBE8>:
    2836:	00369793          	slli	a5,a3,0x3
    283a:	03d65693          	srli	a3,a2,0x3d
    283e:	2901                	sext.w	s2,s2

0000000000002840 <.LBB10>:
    2840:	01147433          	and	s0,s0,a7

0000000000002844 <.LBE10>:
    2844:	050e                	slli	a0,a0,0x3

0000000000002846 <.LBB12>:
    2846:	8edd                	or	a3,a3,a5

0000000000002848 <.LVL4>:
    2848:	060e                	slli	a2,a2,0x3

000000000000284a <.LVL5>:
    284a:	05171863          	bne	a4,a7,289a <.L2>

000000000000284e <.LBB14>:
    284e:	77e1                	lui	a5,0xffff8
    2850:	2785                	addiw	a5,a5,1 # ffffffffffff8001 <.LLST3+0xffffffffffff2253>

0000000000002852 <.LBE14>:
    2852:	00c6e8b3          	or	a7,a3,a2

0000000000002856 <.LBB32>:
    2856:	9fa1                	addw	a5,a5,s0

0000000000002858 <.LBE32>:
    2858:	02088763          	beqz	a7,2886 <.L3>

000000000000285c <.LBB33>:
    285c:	8342                	mv	t1,a6

000000000000285e <.LBE33>:
    285e:	4b049363          	bne	s1,a6,2d04 <.L290>

0000000000002862 <.LBB34>:
    2862:	24078d63          	beqz	a5,2abc <.L26>

0000000000002866 <.LVL6>:
    2866:	4a041263          	bnez	s0,2d0a <.L303>

000000000000286a <.L27>:
    286a:	00a5e833          	or	a6,a1,a0
    286e:	1e081763          	bnez	a6,2a5c <.L30>

0000000000002872 <.L336>:
    2872:	65a1                	lui	a1,0x8

0000000000002874 <.LVL9>:
    2874:	15fd                	addi	a1,a1,-1 # 7fff <.LLST3+0x2251>

0000000000002876 <.LBE35>:
    2876:	4781                	li	a5,0

0000000000002878 <.LBB63>:
    2878:	0ab71463          	bne	a4,a1,2920 <.L12>
    287c:	00c6e833          	or	a6,a3,a2
    2880:	2c080563          	beqz	a6,2b4a <.L200>
    2884:	a159                	j	2d0a <.L303>

0000000000002886 <.L3>:
    2886:	00184313          	xori	t1,a6,1

000000000000288a <.LVL11>:
    288a:	48649763          	bne	s1,t1,2d18 <.L291>

000000000000288e <.LBB64>:
    288e:	22078763          	beqz	a5,2abc <.L26>

0000000000002892 <.LVL12>:
    2892:	dc61                	beqz	s0,286a <.L27>

0000000000002894 <.L328>:
    2894:	4801                	li	a6,0

0000000000002896 <.L201>:
    2896:	4581                	li	a1,0

0000000000002898 <.LVL15>:
    2898:	abb5                	j	2e14 <.L315>

000000000000289a <.L2>:
    289a:	00184313          	xori	t1,a6,1

000000000000289e <.LBB66>:
    289e:	40e407bb          	subw	a5,s0,a4
    28a2:	883e                	mv	a6,a5

00000000000028a4 <.LBE66>:
    28a4:	38649963          	bne	s1,t1,2c36 <.L8>

00000000000028a8 <.LBB67>:
    28a8:	16f05063          	blez	a5,2a08 <.L9>

00000000000028ac <.LVL19>:
    28ac:	eb69                	bnez	a4,297e <.L10>
    28ae:	00c6e7b3          	or	a5,a3,a2
    28b2:	e791                	bnez	a5,28be <.L11>

00000000000028b4 <.L338>:
    28b4:	05140963          	beq	s0,a7,2906 <.L330>

00000000000028b8 <.LBE68>:
    28b8:	86ae                	mv	a3,a1

00000000000028ba <.LVL21>:
    28ba:	862a                	mv	a2,a0

00000000000028bc <.LVL22>:
    28bc:	aca1                	j	2b14 <.L321>

00000000000028be <.L11>:
    28be:	fff8079b          	addiw	a5,a6,-1

00000000000028c2 <.LVL24>:
    28c2:	e3a1                	bnez	a5,2902 <.L14>

00000000000028c4 <.LBB15>:
    28c4:	962a                	add	a2,a2,a0

00000000000028c6 <.LVL26>:
    28c6:	96ae                	add	a3,a3,a1

00000000000028c8 <.LVL27>:
    28c8:	00a63533          	sltu	a0,a2,a0

00000000000028cc <.LVL28>:
    28cc:	96aa                	add	a3,a3,a0

00000000000028ce <.L295>:
    28ce:	8722                	mv	a4,s0

00000000000028d0 <.L17>:
    28d0:	0336d793          	srli	a5,a3,0x33
    28d4:	8b85                	andi	a5,a5,1
    28d6:	22078763          	beqz	a5,2b04 <.L219>

00000000000028da <.LVL31>:
    28da:	67a1                	lui	a5,0x8
    28dc:	0705                	addi	a4,a4,1

00000000000028de <.LVL32>:
    28de:	fff78593          	addi	a1,a5,-1 # 7fff <.LLST3+0x2251>
    28e2:	32b70363          	beq	a4,a1,2c08 <.L62>
    28e6:	57fd                	li	a5,-1
    28e8:	17ce                	slli	a5,a5,0x33
    28ea:	17fd                	addi	a5,a5,-1
    28ec:	8ff5                	and	a5,a5,a3
    28ee:	00165693          	srli	a3,a2,0x1

00000000000028f2 <.LVL33>:
    28f2:	8a05                	andi	a2,a2,1
    28f4:	8ed1                	or	a3,a3,a2
    28f6:	03f79613          	slli	a2,a5,0x3f
    28fa:	8e55                	or	a2,a2,a3
    28fc:	0017d693          	srli	a3,a5,0x1
    2900:	a411                	j	2b04 <.L219>

0000000000002902 <.L14>:
    2902:	0d141563          	bne	s0,a7,29cc <.L18>

0000000000002906 <.L330>:
    2906:	00a5e833          	or	a6,a1,a0
    290a:	7e080663          	beqz	a6,30f6 <.L193>
    290e:	0325d793          	srli	a5,a1,0x32
    2912:	0017c793          	xori	a5,a5,1
    2916:	8b85                	andi	a5,a5,1
    2918:	0792                	slli	a5,a5,0x4
    291a:	86ae                	mv	a3,a1

000000000000291c <.LVL36>:
    291c:	862a                	mv	a2,a0

000000000000291e <.LVL37>:
    291e:	8722                	mv	a4,s0

0000000000002920 <.L12>:
    2920:	00767593          	andi	a1,a2,7
    2924:	78059463          	bnez	a1,30ac <.L221>
    2928:	85b6                	mv	a1,a3
    292a:	8532                	mv	a0,a2

000000000000292c <.L60>:
    292c:	0335d693          	srli	a3,a1,0x33
    2930:	8a85                	andi	a3,a3,1
    2932:	7c068563          	beqz	a3,30fc <.L239>

0000000000002936 <.LVL40>:
    2936:	66a1                	lui	a3,0x8
    2938:	0705                	addi	a4,a4,1

000000000000293a <.LVL41>:
    293a:	fff68613          	addi	a2,a3,-1 # 7fff <.LLST3+0x2251>
    293e:	78c70463          	beq	a4,a2,30c6 <.L150>
    2942:	56fd                	li	a3,-1
    2944:	16ce                	slli	a3,a3,0x33
    2946:	16fd                	addi	a3,a3,-1
    2948:	8df5                	and	a1,a1,a3

000000000000294a <.LVL42>:
    294a:	00355693          	srli	a3,a0,0x3
    294e:	03d59513          	slli	a0,a1,0x3d

0000000000002952 <.LVL43>:
    2952:	8d55                	or	a0,a0,a3

0000000000002954 <.LVL44>:
    2954:	818d                	srli	a1,a1,0x3

0000000000002956 <.L151>:
    2956:	1746                	slli	a4,a4,0x31
    2958:	00f4949b          	slliw	s1,s1,0xf

000000000000295c <.LVL46>:
    295c:	9345                	srli	a4,a4,0x31
    295e:	05c2                	slli	a1,a1,0x10

0000000000002960 <.LVL47>:
    2960:	8f45                	or	a4,a4,s1
    2962:	1742                	slli	a4,a4,0x30
    2964:	81c1                	srli	a1,a1,0x10
    2966:	8dd9                	or	a1,a1,a4

0000000000002968 <.LBE99>:
    2968:	c399                	beqz	a5,296e <.L1>
    296a:	0017a073          	csrs	fflags,a5

000000000000296e <.L1>:
    296e:	70a2                	ld	ra,40(sp)
    2970:	7402                	ld	s0,32(sp)
    2972:	64e2                	ld	s1,24(sp)
    2974:	6942                	ld	s2,16(sp)

0000000000002976 <.LVL49>:
    2976:	69a2                	ld	s3,8(sp)
    2978:	6a02                	ld	s4,0(sp)
    297a:	6145                	addi	sp,sp,48
    297c:	8082                	ret

000000000000297e <.L10>:
    297e:	f91404e3          	beq	s0,a7,2906 <.L330>

0000000000002982 <.LVL51>:
    2982:	07400713          	li	a4,116

0000000000002986 <.LVL52>:
    2986:	04f74763          	blt	a4,a5,29d4 <.L161>
    298a:	4705                	li	a4,1
    298c:	174e                	slli	a4,a4,0x33
    298e:	8ed9                	or	a3,a3,a4

0000000000002990 <.L21>:
    2990:	03f00713          	li	a4,63
    2994:	04f74363          	blt	a4,a5,29da <.L22>
    2998:	04000813          	li	a6,64
    299c:	40f8083b          	subw	a6,a6,a5
    29a0:	01069733          	sll	a4,a3,a6
    29a4:	00f658b3          	srl	a7,a2,a5
    29a8:	01061833          	sll	a6,a2,a6
    29ac:	01176733          	or	a4,a4,a7
    29b0:	01003833          	snez	a6,a6
    29b4:	01076733          	or	a4,a4,a6

00000000000029b8 <.LVL54>:
    29b8:	00f6d7b3          	srl	a5,a3,a5

00000000000029bc <.L20>:
    29bc:	00a70633          	add	a2,a4,a0

00000000000029c0 <.LVL56>:
    29c0:	97ae                	add	a5,a5,a1

00000000000029c2 <.LVL57>:
    29c2:	00e63733          	sltu	a4,a2,a4

00000000000029c6 <.LVL58>:
    29c6:	00e786b3          	add	a3,a5,a4
    29ca:	b711                	j	28ce <.L295>

00000000000029cc <.L18>:
    29cc:	07400713          	li	a4,116

00000000000029d0 <.LVL60>:
    29d0:	fcf750e3          	bge	a4,a5,2990 <.L21>

00000000000029d4 <.L161>:
    29d4:	4781                	li	a5,0
    29d6:	4705                	li	a4,1
    29d8:	b7d5                	j	29bc <.L20>

00000000000029da <.L22>:
    29da:	fc07871b          	addiw	a4,a5,-64
    29de:	04000893          	li	a7,64
    29e2:	00e6d733          	srl	a4,a3,a4
    29e6:	4801                	li	a6,0
    29e8:	01178863          	beq	a5,a7,29f8 <.L23>
    29ec:	08000813          	li	a6,128
    29f0:	40f8083b          	subw	a6,a6,a5
    29f4:	01069833          	sll	a6,a3,a6

00000000000029f8 <.L23>:
    29f8:	00c86833          	or	a6,a6,a2
    29fc:	01003833          	snez	a6,a6
    2a00:	01076733          	or	a4,a4,a6

0000000000002a04 <.LVL62>:
    2a04:	4781                	li	a5,0
    2a06:	bf5d                	j	29bc <.L20>

0000000000002a08 <.L9>:
    2a08:	cbd5                	beqz	a5,2abc <.L26>

0000000000002a0a <.LVL64>:
    2a0a:	e60400e3          	beqz	s0,286a <.L27>

0000000000002a0e <.LVL65>:
    2a0e:	f8c00893          	li	a7,-116
    2a12:	0717cb63          	blt	a5,a7,2a88 <.L168>
    2a16:	4805                	li	a6,1
    2a18:	184e                	slli	a6,a6,0x33
    2a1a:	40f007bb          	negw	a5,a5
    2a1e:	0105e5b3          	or	a1,a1,a6

0000000000002a22 <.L36>:
    2a22:	03f00813          	li	a6,63
    2a26:	06f84463          	blt	a6,a5,2a8e <.L37>
    2a2a:	04000893          	li	a7,64
    2a2e:	40f888bb          	subw	a7,a7,a5
    2a32:	00f55333          	srl	t1,a0,a5
    2a36:	01159833          	sll	a6,a1,a7
    2a3a:	011518b3          	sll	a7,a0,a7
    2a3e:	00686833          	or	a6,a6,t1
    2a42:	011038b3          	snez	a7,a7
    2a46:	01186533          	or	a0,a6,a7
    2a4a:	00f5d7b3          	srl	a5,a1,a5

0000000000002a4e <.L35>:
    2a4e:	962a                	add	a2,a2,a0

0000000000002a50 <.LVL69>:
    2a50:	97b6                	add	a5,a5,a3

0000000000002a52 <.LVL70>:
    2a52:	00a63533          	sltu	a0,a2,a0

0000000000002a56 <.LVL71>:
    2a56:	00a786b3          	add	a3,a5,a0

0000000000002a5a <.LBE23>:
    2a5a:	bd9d                	j	28d0 <.L17>

0000000000002a5c <.L30>:
    2a5c:	fff7c793          	not	a5,a5

0000000000002a60 <.LVL74>:
    2a60:	e799                	bnez	a5,2a6e <.L31>

0000000000002a62 <.LBB24>:
    2a62:	962a                	add	a2,a2,a0

0000000000002a64 <.LVL76>:
    2a64:	96ae                	add	a3,a3,a1

0000000000002a66 <.LVL77>:
    2a66:	00a63533          	sltu	a0,a2,a0

0000000000002a6a <.LVL78>:
    2a6a:	96aa                	add	a3,a3,a0

0000000000002a6c <.LBE24>:
    2a6c:	b595                	j	28d0 <.L17>

0000000000002a6e <.L31>:
    2a6e:	6821                	lui	a6,0x8
    2a70:	187d                	addi	a6,a6,-1 # 7fff <.LLST3+0x2251>
    2a72:	01071763          	bne	a4,a6,2a80 <.L34>

0000000000002a76 <.L318>:
    2a76:	00c6e833          	or	a6,a3,a2
    2a7a:	e0080ee3          	beqz	a6,2896 <.L201>
    2a7e:	a471                	j	2d0a <.L303>

0000000000002a80 <.L34>:
    2a80:	07400813          	li	a6,116
    2a84:	f8f85fe3          	bge	a6,a5,2a22 <.L36>

0000000000002a88 <.L168>:
    2a88:	4781                	li	a5,0
    2a8a:	4505                	li	a0,1

0000000000002a8c <.LVL84>:
    2a8c:	b7c9                	j	2a4e <.L35>

0000000000002a8e <.L37>:
    2a8e:	fc07881b          	addiw	a6,a5,-64
    2a92:	04000313          	li	t1,64
    2a96:	0105d833          	srl	a6,a1,a6
    2a9a:	4881                	li	a7,0
    2a9c:	00678863          	beq	a5,t1,2aac <.L38>
    2aa0:	08000893          	li	a7,128
    2aa4:	40f888bb          	subw	a7,a7,a5
    2aa8:	011598b3          	sll	a7,a1,a7

0000000000002aac <.L38>:
    2aac:	00a8e8b3          	or	a7,a7,a0
    2ab0:	011038b3          	snez	a7,a7
    2ab4:	01186533          	or	a0,a6,a7

0000000000002ab8 <.LVL86>:
    2ab8:	4781                	li	a5,0
    2aba:	bf51                	j	2a4e <.L35>

0000000000002abc <.L26>:
    2abc:	68a1                	lui	a7,0x8
    2abe:	ffe88813          	addi	a6,a7,-2 # 7ffe <.LLST3+0x2250>
    2ac2:	00140793          	addi	a5,s0,1
    2ac6:	0107f333          	and	t1,a5,a6
    2aca:	18fd                	addi	a7,a7,-1
    2acc:	0c031963          	bnez	t1,2b9e <.L41>
    2ad0:	00a5e833          	or	a6,a1,a0
    2ad4:	e815                	bnez	s0,2b08 <.L42>

0000000000002ad6 <.LVL88>:
    2ad6:	54080463          	beqz	a6,301e <.L170>

0000000000002ada <.LBE102>:
    2ada:	00c6e7b3          	or	a5,a3,a2

0000000000002ade <.LBB103>:
    2ade:	46078d63          	beqz	a5,2f58 <.L43>

0000000000002ae2 <.LBB26>:
    2ae2:	962a                	add	a2,a2,a0

0000000000002ae4 <.LVL89>:
    2ae4:	00a637b3          	sltu	a5,a2,a0
    2ae8:	96ae                	add	a3,a3,a1

0000000000002aea <.LVL90>:
    2aea:	00f685b3          	add	a1,a3,a5

0000000000002aee <.LBE26>:
    2aee:	0335d793          	srli	a5,a1,0x33
    2af2:	8b85                	andi	a5,a5,1

0000000000002af4 <.LBB27>:
    2af4:	8532                	mv	a0,a2

0000000000002af6 <.LBE27>:
    2af6:	46078163          	beqz	a5,2f58 <.L43>
    2afa:	56fd                	li	a3,-1
    2afc:	16ce                	slli	a3,a3,0x33
    2afe:	16fd                	addi	a3,a3,-1
    2b00:	8eed                	and	a3,a3,a1

0000000000002b02 <.LBB104>:
    2b02:	4705                	li	a4,1

0000000000002b04 <.L219>:
    2b04:	4781                	li	a5,0
    2b06:	bd29                	j	2920 <.L12>

0000000000002b08 <.L42>:
    2b08:	03141863          	bne	s0,a7,2b38 <.L46>
    2b0c:	00081663          	bnez	a6,2b18 <.L47>
    2b10:	f68703e3          	beq	a4,s0,2a76 <.L318>

0000000000002b14 <.L321>:
    2b14:	8722                	mv	a4,s0

0000000000002b16 <.LVL97>:
    2b16:	b7fd                	j	2b04 <.L219>

0000000000002b18 <.L47>:
    2b18:	4885                	li	a7,1
    2b1a:	18ca                	slli	a7,a7,0x32
    2b1c:	0115f7b3          	and	a5,a1,a7
    2b20:	00c6e333          	or	t1,a3,a2
    2b24:	5c078e63          	beqz	a5,3100 <.L49>

0000000000002b28 <.LBE110>:
    2b28:	4781                	li	a5,0

0000000000002b2a <.LBB111>:
    2b2a:	06871363          	bne	a4,s0,2b90 <.L50>
    2b2e:	02031063          	bnez	t1,2b4e <.L51>

0000000000002b32 <.L298>:
    2b32:	86ae                	mv	a3,a1

0000000000002b34 <.LVL100>:
    2b34:	862a                	mv	a2,a0

0000000000002b36 <.LVL101>:
    2b36:	b3ed                	j	2920 <.L12>

0000000000002b38 <.L46>:
    2b38:	4781                	li	a5,0

0000000000002b3a <.LBB112>:
    2b3a:	05171963          	bne	a4,a7,2b8c <.L52>
    2b3e:	00c6e8b3          	or	a7,a3,a2
    2b42:	5c089463          	bnez	a7,310a <.L53>

0000000000002b46 <.LVL103>:
    2b46:	fe0816e3          	bnez	a6,2b32 <.L298>

0000000000002b4a <.L200>:
    2b4a:	4581                	li	a1,0
    2b4c:	a819                	j	2b62 <.L13>

0000000000002b4e <.L51>:
    2b4e:	0116f8b3          	and	a7,a3,a7
    2b52:	04088463          	beqz	a7,2b9a <.L176>

0000000000002b56 <.L314>:
    2b56:	4585                	li	a1,1

0000000000002b58 <.LVL107>:
    2b58:	6721                	lui	a4,0x8
    2b5a:	4481                	li	s1,0

0000000000002b5c <.LVL108>:
    2b5c:	15ca                	slli	a1,a1,0x32
    2b5e:	4801                	li	a6,0
    2b60:	177d                	addi	a4,a4,-1 # 7fff <.LLST3+0x2251>

0000000000002b62 <.L13>:
    2b62:	66a1                	lui	a3,0x8
    2b64:	03d59513          	slli	a0,a1,0x3d
    2b68:	00385813          	srli	a6,a6,0x3

0000000000002b6c <.LVL110>:
    2b6c:	16fd                	addi	a3,a3,-1 # 7fff <.LLST3+0x2251>
    2b6e:	01056533          	or	a0,a0,a6

0000000000002b72 <.LVL111>:
    2b72:	818d                	srli	a1,a1,0x3
    2b74:	ded711e3          	bne	a4,a3,2956 <.L151>

0000000000002b78 <.LVL113>:
    2b78:	8d4d                	or	a0,a0,a1

0000000000002b7a <.LVL114>:
    2b7a:	4581                	li	a1,0

0000000000002b7c <.LVL115>:
    2b7c:	dc050de3          	beqz	a0,2956 <.L151>
    2b80:	4585                	li	a1,1
    2b82:	15be                	slli	a1,a1,0x2f

0000000000002b84 <.LVL116>:
    2b84:	4501                	li	a0,0
    2b86:	4481                	li	s1,0
    2b88:	b3f9                	j	2956 <.L151>

0000000000002b8a <.L177>:
    2b8a:	47c1                	li	a5,16

0000000000002b8c <.L52>:
    2b8c:	58080663          	beqz	a6,3118 <.L300>

0000000000002b90 <.L50>:
    2b90:	8ed1                	or	a3,a3,a2

0000000000002b92 <.LVL120>:
    2b92:	f2f1                	bnez	a3,2b56 <.L314>

0000000000002b94 <.L218>:
    2b94:	86ae                	mv	a3,a1
    2b96:	862a                	mv	a2,a0
    2b98:	a341                	j	3118 <.L300>

0000000000002b9a <.L176>:
    2b9a:	47c1                	li	a5,16
    2b9c:	bfd5                	j	2b90 <.L50>

0000000000002b9e <.L41>:
    2b9e:	01178e63          	beq	a5,a7,2bba <.L55>
    2ba2:	962a                	add	a2,a2,a0

0000000000002ba4 <.LBB30>:
    2ba4:	00a63533          	sltu	a0,a2,a0

0000000000002ba8 <.LVL125>:
    2ba8:	96ae                	add	a3,a3,a1

0000000000002baa <.LVL126>:
    2baa:	96aa                	add	a3,a3,a0

0000000000002bac <.LBE30>:
    2bac:	03f69713          	slli	a4,a3,0x3f

0000000000002bb0 <.LVL127>:
    2bb0:	8205                	srli	a2,a2,0x1

0000000000002bb2 <.LVL128>:
    2bb2:	8e59                	or	a2,a2,a4
    2bb4:	8285                	srli	a3,a3,0x1
    2bb6:	873e                	mv	a4,a5
    2bb8:	b7b1                	j	2b04 <.L219>

0000000000002bba <.L55>:
    2bba:	52090963          	beqz	s2,30ec <.L184>
    2bbe:	470d                	li	a4,3

0000000000002bc0 <.LVL130>:
    2bc0:	02e91a63          	bne	s2,a4,2bf4 <.L58>
    2bc4:	52048463          	beqz	s1,30ec <.L184>
    2bc8:	4681                	li	a3,0

0000000000002bca <.LVL131>:
    2bca:	55fd                	li	a1,-1

0000000000002bcc <.LVL132>:
    2bcc:	557d                	li	a0,-1

0000000000002bce <.LVL133>:
    2bce:	8742                	mv	a4,a6

0000000000002bd0 <.L308>:
    2bd0:	4795                	li	a5,5

0000000000002bd2 <.L59>:
    2bd2:	460d                	li	a2,3
    2bd4:	4ec90263          	beq	s2,a2,30b8 <.L139>
    2bd8:	4e091163          	bnez	s2,30ba <.L140>

0000000000002bdc <.LVL136>:
    2bdc:	00f57613          	andi	a2,a0,15
    2be0:	4811                	li	a6,4
    2be2:	4d060c63          	beq	a2,a6,30ba <.L140>

0000000000002be6 <.LBB80>:
    2be6:	00450613          	addi	a2,a0,4

0000000000002bea <.L327>:
    2bea:	00a63833          	sltu	a6,a2,a0

0000000000002bee <.LBB81>:
    2bee:	95c2                	add	a1,a1,a6
    2bf0:	8532                	mv	a0,a2

0000000000002bf2 <.LBE81>:
    2bf2:	a1e1                	j	30ba <.L140>

0000000000002bf4 <.L58>:
    2bf4:	4709                	li	a4,2
    2bf6:	00e91463          	bne	s2,a4,2bfe <.L183>
    2bfa:	4e049963          	bnez	s1,30ec <.L184>

0000000000002bfe <.L183>:
    2bfe:	55fd                	li	a1,-1

0000000000002c00 <.LVL139>:
    2c00:	557d                	li	a0,-1

0000000000002c02 <.LVL140>:
    2c02:	8742                	mv	a4,a6

0000000000002c04 <.L313>:
    2c04:	4795                	li	a5,5
    2c06:	b31d                	j	292c <.L60>

0000000000002c08 <.L62>:
    2c08:	4e090363          	beqz	s2,30ee <.L189>
    2c0c:	468d                	li	a3,3

0000000000002c0e <.LVL143>:
    2c0e:	00d91a63          	bne	s2,a3,2c22 <.L63>
    2c12:	4c048e63          	beqz	s1,30ee <.L189>
    2c16:	4681                	li	a3,0
    2c18:	55fd                	li	a1,-1
    2c1a:	557d                	li	a0,-1
    2c1c:	ffe78713          	addi	a4,a5,-2

0000000000002c20 <.LVL144>:
    2c20:	bf45                	j	2bd0 <.L308>

0000000000002c22 <.L63>:
    2c22:	4689                	li	a3,2
    2c24:	00d91463          	bne	s2,a3,2c2c <.L188>
    2c28:	4c049363          	bnez	s1,30ee <.L189>

0000000000002c2c <.L188>:
    2c2c:	55fd                	li	a1,-1
    2c2e:	557d                	li	a0,-1
    2c30:	ffe78713          	addi	a4,a5,-2

0000000000002c34 <.LVL146>:
    2c34:	bfc1                	j	2c04 <.L313>

0000000000002c36 <.L8>:
    2c36:	10f05463          	blez	a5,2d3e <.L64>

0000000000002c3a <.LVL148>:
    2c3a:	e729                	bnez	a4,2c84 <.L65>
    2c3c:	00c6e7b3          	or	a5,a3,a2
    2c40:	c6078ae3          	beqz	a5,28b4 <.L338>
    2c44:	fff8079b          	addiw	a5,a6,-1

0000000000002c48 <.LVL149>:
    2c48:	e78d                	bnez	a5,2c72 <.L67>

0000000000002c4a <.LBB38>:
    2c4a:	40c50633          	sub	a2,a0,a2

0000000000002c4e <.LVL151>:
    2c4e:	40d586b3          	sub	a3,a1,a3

0000000000002c52 <.LVL152>:
    2c52:	00c53533          	sltu	a0,a0,a2

0000000000002c56 <.LVL153>:
    2c56:	8e89                	sub	a3,a3,a0

0000000000002c58 <.L296>:
    2c58:	8722                	mv	a4,s0

0000000000002c5a <.L70>:
    2c5a:	0336d793          	srli	a5,a3,0x33
    2c5e:	8b85                	andi	a5,a5,1
    2c60:	ea0782e3          	beqz	a5,2b04 <.L219>

0000000000002c64 <.LBB40>:
    2c64:	00d69993          	slli	s3,a3,0xd
    2c68:	00d9d993          	srli	s3,s3,0xd

0000000000002c6c <.LVL156>:
    2c6c:	8a32                	mv	s4,a2
    2c6e:	843a                	mv	s0,a4

0000000000002c70 <.LVL157>:
    2c70:	ac69                	j	2f0a <.L119>

0000000000002c72 <.L67>:
    2c72:	c9140ae3          	beq	s0,a7,2906 <.L330>

0000000000002c76 <.L71>:
    2c76:	07400713          	li	a4,116

0000000000002c7a <.LVL159>:
    2c7a:	00f75e63          	bge	a4,a5,2c96 <.L74>

0000000000002c7e <.L195>:
    2c7e:	4781                	li	a5,0
    2c80:	4705                	li	a4,1
    2c82:	a081                	j	2cc2 <.L73>

0000000000002c84 <.L65>:
    2c84:	c91401e3          	beq	s0,a7,2906 <.L330>

0000000000002c88 <.LVL162>:
    2c88:	07400713          	li	a4,116

0000000000002c8c <.LVL163>:
    2c8c:	fef749e3          	blt	a4,a5,2c7e <.L195>
    2c90:	4705                	li	a4,1
    2c92:	174e                	slli	a4,a4,0x33
    2c94:	8ed9                	or	a3,a3,a4

0000000000002c96 <.L74>:
    2c96:	03f00713          	li	a4,63
    2c9a:	02f74e63          	blt	a4,a5,2cd6 <.L75>
    2c9e:	04000813          	li	a6,64
    2ca2:	40f8083b          	subw	a6,a6,a5
    2ca6:	01069733          	sll	a4,a3,a6
    2caa:	00f658b3          	srl	a7,a2,a5
    2cae:	01061833          	sll	a6,a2,a6
    2cb2:	01176733          	or	a4,a4,a7
    2cb6:	01003833          	snez	a6,a6
    2cba:	01076733          	or	a4,a4,a6

0000000000002cbe <.LVL165>:
    2cbe:	00f6d7b3          	srl	a5,a3,a5

0000000000002cc2 <.L73>:
    2cc2:	40e50733          	sub	a4,a0,a4

0000000000002cc6 <.LVL167>:
    2cc6:	40f587b3          	sub	a5,a1,a5

0000000000002cca <.LVL168>:
    2cca:	00e536b3          	sltu	a3,a0,a4
    2cce:	863a                	mv	a2,a4

0000000000002cd0 <.LVL169>:
    2cd0:	40d786b3          	sub	a3,a5,a3
    2cd4:	b751                	j	2c58 <.L296>

0000000000002cd6 <.L75>:
    2cd6:	fc07871b          	addiw	a4,a5,-64
    2cda:	04000893          	li	a7,64
    2cde:	00e6d733          	srl	a4,a3,a4
    2ce2:	4801                	li	a6,0
    2ce4:	01178863          	beq	a5,a7,2cf4 <.L76>
    2ce8:	08000813          	li	a6,128
    2cec:	40f8083b          	subw	a6,a6,a5
    2cf0:	01069833          	sll	a6,a3,a6

0000000000002cf4 <.L76>:
    2cf4:	00c86833          	or	a6,a6,a2
    2cf8:	01003833          	snez	a6,a6
    2cfc:	01076733          	or	a4,a4,a6

0000000000002d00 <.LVL171>:
    2d00:	4781                	li	a5,0
    2d02:	b7c1                	j	2cc2 <.L73>

0000000000002d04 <.L290>:
    2d04:	c3e5                	beqz	a5,2de4 <.L79>

0000000000002d06 <.LVL173>:
    2d06:	84c2                	mv	s1,a6

0000000000002d08 <.LVL174>:
    2d08:	cc01                	beqz	s0,2d20 <.L80>

0000000000002d0a <.L303>:
    2d0a:	0326d793          	srli	a5,a3,0x32
    2d0e:	0017c793          	xori	a5,a5,1
    2d12:	8b85                	andi	a5,a5,1
    2d14:	0792                	slli	a5,a5,0x4
    2d16:	b129                	j	2920 <.L12>

0000000000002d18 <.L291>:
    2d18:	c7f1                	beqz	a5,2de4 <.L79>

0000000000002d1a <.LVL177>:
    2d1a:	849a                	mv	s1,t1

0000000000002d1c <.LVL178>:
    2d1c:	b6041ce3          	bnez	s0,2894 <.L328>

0000000000002d20 <.L80>:
    2d20:	00a5e833          	or	a6,a1,a0
    2d24:	b40807e3          	beqz	a6,2872 <.L336>
    2d28:	fff7c793          	not	a5,a5

0000000000002d2c <.LVL180>:
    2d2c:	ef89                	bnez	a5,2d46 <.L84>

0000000000002d2e <.LBB49>:
    2d2e:	40a60533          	sub	a0,a2,a0

0000000000002d32 <.LVL181>:
    2d32:	00a637b3          	sltu	a5,a2,a0

0000000000002d36 <.LVL182>:
    2d36:	8e8d                	sub	a3,a3,a1

0000000000002d38 <.LVL183>:
    2d38:	862a                	mv	a2,a0

0000000000002d3a <.LVL184>:
    2d3a:	8e9d                	sub	a3,a3,a5

0000000000002d3c <.LBE49>:
    2d3c:	bf39                	j	2c5a <.L70>

0000000000002d3e <.L64>:
    2d3e:	c3dd                	beqz	a5,2de4 <.L79>

0000000000002d40 <.LVL187>:
    2d40:	ec11                	bnez	s0,2d5c <.L82>
    2d42:	849a                	mv	s1,t1

0000000000002d44 <.LVL188>:
    2d44:	bff1                	j	2d20 <.L80>

0000000000002d46 <.L84>:
    2d46:	6821                	lui	a6,0x8
    2d48:	187d                	addi	a6,a6,-1 # 7fff <.LLST3+0x2251>
    2d4a:	d30706e3          	beq	a4,a6,2a76 <.L318>

0000000000002d4e <.L87>:
    2d4e:	07400813          	li	a6,116
    2d52:	02f85063          	bge	a6,a5,2d72 <.L89>

0000000000002d56 <.L204>:
    2d56:	4781                	li	a5,0
    2d58:	4505                	li	a0,1

0000000000002d5a <.LVL191>:
    2d5a:	a091                	j	2d9e <.L88>

0000000000002d5c <.L82>:
    2d5c:	f8c00893          	li	a7,-116
    2d60:	0917c063          	blt	a5,a7,2de0 <.L203>
    2d64:	4805                	li	a6,1
    2d66:	184e                	slli	a6,a6,0x33
    2d68:	40f007bb          	negw	a5,a5
    2d6c:	0105e5b3          	or	a1,a1,a6

0000000000002d70 <.LVL193>:
    2d70:	849a                	mv	s1,t1

0000000000002d72 <.L89>:
    2d72:	03f00813          	li	a6,63
    2d76:	02f84e63          	blt	a6,a5,2db2 <.L90>
    2d7a:	04000893          	li	a7,64
    2d7e:	40f888bb          	subw	a7,a7,a5
    2d82:	00f55333          	srl	t1,a0,a5

0000000000002d86 <.LVL195>:
    2d86:	01159833          	sll	a6,a1,a7
    2d8a:	011518b3          	sll	a7,a0,a7
    2d8e:	00686833          	or	a6,a6,t1
    2d92:	011038b3          	snez	a7,a7
    2d96:	01186533          	or	a0,a6,a7
    2d9a:	00f5d7b3          	srl	a5,a1,a5

0000000000002d9e <.L88>:
    2d9e:	40a60533          	sub	a0,a2,a0

0000000000002da2 <.LVL198>:
    2da2:	00a635b3          	sltu	a1,a2,a0
    2da6:	40f687b3          	sub	a5,a3,a5

0000000000002daa <.LVL199>:
    2daa:	862a                	mv	a2,a0

0000000000002dac <.LVL200>:
    2dac:	40b786b3          	sub	a3,a5,a1

0000000000002db0 <.LBE51>:
    2db0:	b56d                	j	2c5a <.L70>

0000000000002db2 <.L90>:
    2db2:	fc07881b          	addiw	a6,a5,-64
    2db6:	04000313          	li	t1,64

0000000000002dba <.LVL203>:
    2dba:	0105d833          	srl	a6,a1,a6
    2dbe:	4881                	li	a7,0
    2dc0:	00678863          	beq	a5,t1,2dd0 <.L91>
    2dc4:	08000893          	li	a7,128
    2dc8:	40f888bb          	subw	a7,a7,a5
    2dcc:	011598b3          	sll	a7,a1,a7

0000000000002dd0 <.L91>:
    2dd0:	00a8e8b3          	or	a7,a7,a0
    2dd4:	011038b3          	snez	a7,a7
    2dd8:	01186533          	or	a0,a6,a7

0000000000002ddc <.LVL204>:
    2ddc:	4781                	li	a5,0
    2dde:	b7c1                	j	2d9e <.L88>

0000000000002de0 <.L203>:
    2de0:	849a                	mv	s1,t1

0000000000002de2 <.LVL206>:
    2de2:	bf95                	j	2d56 <.L204>

0000000000002de4 <.L79>:
    2de4:	6e21                	lui	t3,0x8
    2de6:	00140793          	addi	a5,s0,1
    2dea:	ffee0813          	addi	a6,t3,-2 # 7ffe <.LLST3+0x2250>
    2dee:	0107f7b3          	and	a5,a5,a6
    2df2:	e7f5                	bnez	a5,2ede <.L94>

0000000000002df4 <.LBE124>:
    2df4:	00c6e833          	or	a6,a3,a2

0000000000002df8 <.LBB125>:
    2df8:	00a5e8b3          	or	a7,a1,a0

0000000000002dfc <.LBB126>:
    2dfc:	ec29                	bnez	s0,2e56 <.L95>

0000000000002dfe <.LVL208>:
    2dfe:	00089d63          	bnez	a7,2e18 <.L96>

0000000000002e02 <.LVL209>:
    2e02:	22081163          	bnez	a6,3024 <.L206>

0000000000002e06 <.L306>:
    2e06:	ffe90493          	addi	s1,s2,-2

0000000000002e0a <.LVL211>:
    2e0a:	0014b493          	seqz	s1,s1

0000000000002e0e <.L97>:
    2e0e:	4581                	li	a1,0
    2e10:	4801                	li	a6,0
    2e12:	4701                	li	a4,0

0000000000002e14 <.L315>:
    2e14:	4781                	li	a5,0
    2e16:	b3b1                	j	2b62 <.L13>

0000000000002e18 <.L96>:
    2e18:	14080063          	beqz	a6,2f58 <.L43>

0000000000002e1c <.LBB53>:
    2e1c:	40c50733          	sub	a4,a0,a2

0000000000002e20 <.LVL214>:
    2e20:	00e53833          	sltu	a6,a0,a4
    2e24:	40d587b3          	sub	a5,a1,a3
    2e28:	410787b3          	sub	a5,a5,a6

0000000000002e2c <.LBE53>:
    2e2c:	0337d813          	srli	a6,a5,0x33
    2e30:	00187813          	andi	a6,a6,1
    2e34:	00080b63          	beqz	a6,2e4a <.L100>

0000000000002e38 <.LBB54>:
    2e38:	40a60533          	sub	a0,a2,a0

0000000000002e3c <.LVL217>:
    2e3c:	8e8d                	sub	a3,a3,a1

0000000000002e3e <.LVL218>:
    2e3e:	00a63633          	sltu	a2,a2,a0

0000000000002e42 <.LVL219>:
    2e42:	40c685b3          	sub	a1,a3,a2

0000000000002e46 <.L305>:
    2e46:	849a                	mv	s1,t1

0000000000002e48 <.LVL221>:
    2e48:	aa01                	j	2f58 <.L43>

0000000000002e4a <.L100>:
    2e4a:	00f766b3          	or	a3,a4,a5

0000000000002e4e <.LVL223>:
    2e4e:	dec5                	beqz	a3,2e06 <.L306>

0000000000002e50 <.LBB55>:
    2e50:	85be                	mv	a1,a5

0000000000002e52 <.LVL224>:
    2e52:	853a                	mv	a0,a4

0000000000002e54 <.LVL225>:
    2e54:	a211                	j	2f58 <.L43>

0000000000002e56 <.L95>:
    2e56:	1e7d                	addi	t3,t3,-1
    2e58:	05c41063          	bne	s0,t3,2e98 <.L103>
    2e5c:	00089e63          	bnez	a7,2e78 <.L104>

0000000000002e60 <.LBE130>:
    2e60:	4781                	li	a5,0

0000000000002e62 <.LBB131>:
    2e62:	06871363          	bne	a4,s0,2ec8 <.L105>
    2e66:	4585                	li	a1,1

0000000000002e68 <.LVL227>:
    2e68:	15ca                	slli	a1,a1,0x32
    2e6a:	4481                	li	s1,0

0000000000002e6c <.LVL228>:
    2e6c:	04080063          	beqz	a6,2eac <.L316>
    2e70:	8df5                	and	a1,a1,a3
    2e72:	c5a5                	beqz	a1,2eda <.L213>

0000000000002e74 <.L216>:
    2e74:	849a                	mv	s1,t1
    2e76:	b46d                	j	2920 <.L12>

0000000000002e78 <.L104>:
    2e78:	4605                	li	a2,1

0000000000002e7a <.LVL230>:
    2e7a:	164a                	slli	a2,a2,0x32
    2e7c:	00c5f7b3          	and	a5,a1,a2
    2e80:	28078f63          	beqz	a5,311e <.L107>

0000000000002e84 <.LBE131>:
    2e84:	4781                	li	a5,0

0000000000002e86 <.LBB132>:
    2e86:	2a871463          	bne	a4,s0,312e <.L108>
    2e8a:	d00805e3          	beqz	a6,2b94 <.L218>
    2e8e:	8e75                	and	a2,a2,a3
    2e90:	cc0613e3          	bnez	a2,2b56 <.L314>
    2e94:	47c1                	li	a5,16
    2e96:	ac61                	j	312e <.L108>

0000000000002e98 <.L103>:
    2e98:	4781                	li	a5,0

0000000000002e9a <.LBB133>:
    2e9a:	03c71563          	bne	a4,t3,2ec4 <.L111>
    2e9e:	00081963          	bnez	a6,2eb0 <.L112>

0000000000002ea2 <.LVL232>:
    2ea2:	ce0899e3          	bnez	a7,2b94 <.L218>
    2ea6:	4585                	li	a1,1

0000000000002ea8 <.LVL233>:
    2ea8:	4481                	li	s1,0

0000000000002eaa <.LVL234>:
    2eaa:	15ca                	slli	a1,a1,0x32

0000000000002eac <.L316>:
    2eac:	47c1                	li	a5,16
    2eae:	b955                	j	2b62 <.L13>

0000000000002eb0 <.L112>:
    2eb0:	0326de13          	srli	t3,a3,0x32
    2eb4:	001e7e13          	andi	t3,t3,1
    2eb8:	000e0563          	beqz	t3,2ec2 <.L215>

0000000000002ebc <.LVL237>:
    2ebc:	c8089de3          	bnez	a7,2b56 <.L314>
    2ec0:	bf55                	j	2e74 <.L216>

0000000000002ec2 <.L215>:
    2ec2:	47c1                	li	a5,16

0000000000002ec4 <.L111>:
    2ec4:	26089563          	bnez	a7,312e <.L108>

0000000000002ec8 <.L105>:
    2ec8:	849a                	mv	s1,t1
    2eca:	24081763          	bnez	a6,3118 <.L300>
    2ece:	4585                	li	a1,1
    2ed0:	6721                	lui	a4,0x8

0000000000002ed2 <.LVL241>:
    2ed2:	4481                	li	s1,0
    2ed4:	15ca                	slli	a1,a1,0x32
    2ed6:	177d                	addi	a4,a4,-1 # 7fff <.LLST3+0x2251>
    2ed8:	bfd1                	j	2eac <.L316>

0000000000002eda <.L213>:
    2eda:	47c1                	li	a5,16
    2edc:	b7f5                	j	2ec8 <.L105>

0000000000002ede <.L94>:
    2ede:	40c507b3          	sub	a5,a0,a2
    2ee2:	00f53733          	sltu	a4,a0,a5

0000000000002ee6 <.LVL244>:
    2ee6:	40d589b3          	sub	s3,a1,a3
    2eea:	40e989b3          	sub	s3,s3,a4

0000000000002eee <.LBE56>:
    2eee:	0339d713          	srli	a4,s3,0x33
    2ef2:	8b05                	andi	a4,a4,1

0000000000002ef4 <.LBB57>:
    2ef4:	8a3e                	mv	s4,a5

0000000000002ef6 <.LBE57>:
    2ef6:	cf55                	beqz	a4,2fb2 <.L116>

0000000000002ef8 <.LBB58>:
    2ef8:	40a60a33          	sub	s4,a2,a0

0000000000002efc <.LVL247>:
    2efc:	40b689b3          	sub	s3,a3,a1

0000000000002f00 <.LVL248>:
    2f00:	01463633          	sltu	a2,a2,s4

0000000000002f04 <.LVL249>:
    2f04:	40c989b3          	sub	s3,s3,a2

0000000000002f08 <.LBE58>:
    2f08:	849a                	mv	s1,t1

0000000000002f0a <.L119>:
    2f0a:	0a098863          	beqz	s3,2fba <.L120>
    2f0e:	854e                	mv	a0,s3
    2f10:	00000097          	auipc	ra,0x0
    2f14:	000080e7          	jalr	ra # 2f10 <.L119+0x6>

0000000000002f18 <.LVL252>:
    2f18:	ff45071b          	addiw	a4,a0,-12

0000000000002f1c <.L121>:
    2f1c:	04000693          	li	a3,64
    2f20:	9e99                	subw	a3,a3,a4
    2f22:	00e999b3          	sll	s3,s3,a4

0000000000002f26 <.LVL254>:
    2f26:	00da56b3          	srl	a3,s4,a3
    2f2a:	0136e6b3          	or	a3,a3,s3

0000000000002f2e <.LVL255>:
    2f2e:	00ea19b3          	sll	s3,s4,a4

0000000000002f32 <.LVL256>:
    2f32:	0c874e63          	blt	a4,s0,300e <.L123>
    2f36:	9f01                	subw	a4,a4,s0
    2f38:	2705                	addiw	a4,a4,1

0000000000002f3a <.L124>:
    2f3a:	04000793          	li	a5,64
    2f3e:	9f99                	subw	a5,a5,a4
    2f40:	00f69533          	sll	a0,a3,a5
    2f44:	00e9d633          	srl	a2,s3,a4
    2f48:	00f997b3          	sll	a5,s3,a5
    2f4c:	8d51                	or	a0,a0,a2
    2f4e:	00f037b3          	snez	a5,a5
    2f52:	8d5d                	or	a0,a0,a5

0000000000002f54 <.LVL258>:
    2f54:	00e6d5b3          	srl	a1,a3,a4

0000000000002f58 <.L43>:
    2f58:	00b567b3          	or	a5,a0,a1
    2f5c:	ea0789e3          	beqz	a5,2e0e <.L97>

0000000000002f60 <.LBB82>:
    2f60:	03f55793          	srli	a5,a0,0x3f
    2f64:	00159713          	slli	a4,a1,0x1
    2f68:	973e                	add	a4,a4,a5

0000000000002f6a <.LVL261>:
    2f6a:	00151793          	slli	a5,a0,0x1

0000000000002f6e <.LVL262>:
    2f6e:	0077f613          	andi	a2,a5,7

0000000000002f72 <.LBE82>:
    2f72:	00757693          	andi	a3,a0,7

0000000000002f76 <.LBB90>:
    2f76:	10060163          	beqz	a2,3078 <.L129>

0000000000002f7a <.LVL263>:
    2f7a:	4609                	li	a2,2
    2f7c:	0cc90963          	beq	s2,a2,304e <.L130>
    2f80:	4605                	li	a2,1
    2f82:	480d                	li	a6,3
    2f84:	1652                	slli	a2,a2,0x34
    2f86:	0b090263          	beq	s2,a6,302a <.L131>
    2f8a:	0a091163          	bnez	s2,302c <.L132>
    2f8e:	00f7f813          	andi	a6,a5,15
    2f92:	4891                	li	a7,4
    2f94:	09180c63          	beq	a6,a7,302c <.L132>

0000000000002f98 <.LBB84>:
    2f98:	ffc7b793          	sltiu	a5,a5,-4

0000000000002f9c <.LVL265>:
    2f9c:	0017c793          	xori	a5,a5,1
    2fa0:	1782                	slli	a5,a5,0x20
    2fa2:	9381                	srli	a5,a5,0x20
    2fa4:	97ba                	add	a5,a5,a4

0000000000002fa6 <.LBE85>:
    2fa6:	8ff1                	and	a5,a5,a2
    2fa8:	e3f5                	bnez	a5,308c <.L234>

0000000000002faa <.LBE90>:
    2faa:	c6e9                	beqz	a3,3074 <.L312>

0000000000002fac <.L235>:
    2fac:	4685                	li	a3,1
    2fae:	4701                	li	a4,0
    2fb0:	a211                	j	30b4 <.L309>

0000000000002fb2 <.L116>:
    2fb2:	0137e7b3          	or	a5,a5,s3

0000000000002fb6 <.LVL268>:
    2fb6:	fbb1                	bnez	a5,2f0a <.L119>
    2fb8:	b5b9                	j	2e06 <.L306>

0000000000002fba <.L120>:
    2fba:	8552                	mv	a0,s4
    2fbc:	00000097          	auipc	ra,0x0
    2fc0:	000080e7          	jalr	ra # 2fbc <.L120+0x2>

0000000000002fc4 <.LVL270>:
    2fc4:	0345071b          	addiw	a4,a0,52

0000000000002fc8 <.LVL271>:
    2fc8:	03f00593          	li	a1,63
    2fcc:	f4e5d8e3          	bge	a1,a4,2f1c <.L121>
    2fd0:	ff45069b          	addiw	a3,a0,-12
    2fd4:	00da16b3          	sll	a3,s4,a3

0000000000002fd8 <.LVL272>:
    2fd8:	02874b63          	blt	a4,s0,300e <.L123>
    2fdc:	408707bb          	subw	a5,a4,s0
    2fe0:	0017871b          	addiw	a4,a5,1
    2fe4:	f4e5dbe3          	bge	a1,a4,2f3a <.L124>
    2fe8:	fc17879b          	addiw	a5,a5,-63
    2fec:	04000593          	li	a1,64
    2ff0:	00f6d7b3          	srl	a5,a3,a5
    2ff4:	4501                	li	a0,0
    2ff6:	00b70763          	beq	a4,a1,3004 <.L126>
    2ffa:	08000513          	li	a0,128
    2ffe:	9d19                	subw	a0,a0,a4
    3000:	00a69533          	sll	a0,a3,a0

0000000000003004 <.L126>:
    3004:	00a03533          	snez	a0,a0
    3008:	8d5d                	or	a0,a0,a5

000000000000300a <.LBB136>:
    300a:	4581                	li	a1,0
    300c:	b7b1                	j	2f58 <.L43>

000000000000300e <.L123>:
    300e:	57fd                	li	a5,-1
    3010:	17ce                	slli	a5,a5,0x33
    3012:	17fd                	addi	a5,a5,-1
    3014:	40e40733          	sub	a4,s0,a4

0000000000003018 <.LVL276>:
    3018:	8efd                	and	a3,a3,a5

000000000000301a <.LBB138>:
    301a:	864e                	mv	a2,s3
    301c:	b4e5                	j	2b04 <.L219>

000000000000301e <.L170>:
    301e:	85b6                	mv	a1,a3

0000000000003020 <.LVL279>:
    3020:	8532                	mv	a0,a2

0000000000003022 <.LVL280>:
    3022:	bf1d                	j	2f58 <.L43>

0000000000003024 <.L206>:
    3024:	85b6                	mv	a1,a3

0000000000003026 <.LVL282>:
    3026:	8532                	mv	a0,a2

0000000000003028 <.LVL283>:
    3028:	bd39                	j	2e46 <.L305>

000000000000302a <.L131>:
    302a:	c489                	beqz	s1,3034 <.L136>

000000000000302c <.L132>:
    302c:	8f71                	and	a4,a4,a2

000000000000302e <.LVL285>:
    302e:	ef39                	bnez	a4,308c <.L234>

0000000000003030 <.LBE91>:
    3030:	feb5                	bnez	a3,2fac <.L235>
    3032:	a821                	j	304a <.L310>

0000000000003034 <.L136>:
    3034:	ff87b793          	sltiu	a5,a5,-8

0000000000003038 <.LVL287>:
    3038:	0017c793          	xori	a5,a5,1
    303c:	1782                	slli	a5,a5,0x20
    303e:	9381                	srli	a5,a5,0x20
    3040:	97ba                	add	a5,a5,a4

0000000000003042 <.LBE87>:
    3042:	8ff1                	and	a5,a5,a2
    3044:	e7a1                	bnez	a5,308c <.L234>

0000000000003046 <.LBE92>:
    3046:	4701                	li	a4,0

0000000000003048 <.LVL288>:
    3048:	e6ad                	bnez	a3,30b2 <.L226>

000000000000304a <.L310>:
    304a:	4785                	li	a5,1
    304c:	a031                	j	3058 <.L137>

000000000000304e <.L130>:
    304e:	e881                	bnez	s1,305e <.L138>
    3050:	9351                	srli	a4,a4,0x34

0000000000003052 <.LVL291>:
    3052:	8b05                	andi	a4,a4,1
    3054:	4785                	li	a5,1

0000000000003056 <.LVL292>:
    3056:	ef05                	bnez	a4,308e <.L134>

0000000000003058 <.L137>:
    3058:	0027e793          	ori	a5,a5,2

000000000000305c <.LVL294>:
    305c:	b8c1                	j	292c <.L60>

000000000000305e <.L138>:
    305e:	ff87b793          	sltiu	a5,a5,-8

0000000000003062 <.LVL296>:
    3062:	0017c793          	xori	a5,a5,1
    3066:	1782                	slli	a5,a5,0x20
    3068:	9381                	srli	a5,a5,0x20
    306a:	97ba                	add	a5,a5,a4

000000000000306c <.LBE89>:
    306c:	93d1                	srli	a5,a5,0x34
    306e:	8b85                	andi	a5,a5,1
    3070:	ef91                	bnez	a5,308c <.L234>

0000000000003072 <.LBE94>:
    3072:	e6b1                	bnez	a3,30be <.L230>

0000000000003074 <.L312>:
    3074:	4701                	li	a4,0
    3076:	bfd1                	j	304a <.L310>

0000000000003078 <.L129>:
    3078:	9351                	srli	a4,a4,0x34

000000000000307a <.LVL299>:
    307a:	8b05                	andi	a4,a4,1
    307c:	e715                	bnez	a4,30a8 <.L236>

000000000000307e <.LBE95>:
    307e:	4781                	li	a5,0

0000000000003080 <.LVL300>:
    3080:	8a0686e3          	beqz	a3,292c <.L60>
    3084:	4685                	li	a3,1
    3086:	4701                	li	a4,0
    3088:	4781                	li	a5,0
    308a:	a031                	j	3096 <.L127>

000000000000308c <.L234>:
    308c:	4785                	li	a5,1

000000000000308e <.L134>:
    308e:	4701                	li	a4,0
    3090:	88068ee3          	beqz	a3,292c <.L60>

0000000000003094 <.L307>:
    3094:	4681                	li	a3,0

0000000000003096 <.L127>:
    3096:	4609                	li	a2,2
    3098:	0017e793          	ori	a5,a5,1

000000000000309c <.LVL305>:
    309c:	b2c91be3          	bne	s2,a2,2bd2 <.L59>

00000000000030a0 <.L61>:
    30a0:	cc89                	beqz	s1,30ba <.L140>

00000000000030a2 <.L147>:
    30a2:	00850613          	addi	a2,a0,8
    30a6:	b691                	j	2bea <.L327>

00000000000030a8 <.L236>:
    30a8:	4781                	li	a5,0

00000000000030aa <.LVL308>:
    30aa:	b7d5                	j	308e <.L134>

00000000000030ac <.L221>:
    30ac:	85b6                	mv	a1,a3
    30ae:	8532                	mv	a0,a2
    30b0:	b7d5                	j	3094 <.L307>

00000000000030b2 <.L226>:
    30b2:	4685                	li	a3,1

00000000000030b4 <.L309>:
    30b4:	4785                	li	a5,1
    30b6:	be31                	j	2bd2 <.L59>

00000000000030b8 <.L139>:
    30b8:	d4ed                	beqz	s1,30a2 <.L147>

00000000000030ba <.L140>:
    30ba:	fed9                	bnez	a3,3058 <.L137>
    30bc:	b885                	j	292c <.L60>

00000000000030be <.L230>:
    30be:	4685                	li	a3,1
    30c0:	4701                	li	a4,0

00000000000030c2 <.LVL315>:
    30c2:	4785                	li	a5,1
    30c4:	bff1                	j	30a0 <.L61>

00000000000030c6 <.L150>:
    30c6:	4801                	li	a6,0
    30c8:	00090663          	beqz	s2,30d4 <.L152>
    30cc:	460d                	li	a2,3
    30ce:	00c91763          	bne	s2,a2,30dc <.L153>
    30d2:	e889                	bnez	s1,30e4 <.L243>

00000000000030d4 <.L152>:
    30d4:	0057e793          	ori	a5,a5,5

00000000000030d8 <.LVL318>:
    30d8:	85c2                	mv	a1,a6
    30da:	b461                	j	2b62 <.L13>

00000000000030dc <.L153>:
    30dc:	4609                	li	a2,2
    30de:	00c91363          	bne	s2,a2,30e4 <.L243>
    30e2:	f8ed                	bnez	s1,30d4 <.L152>

00000000000030e4 <.L243>:
    30e4:	587d                	li	a6,-1
    30e6:	ffe68713          	addi	a4,a3,-2

00000000000030ea <.LVL320>:
    30ea:	b7ed                	j	30d4 <.L152>

00000000000030ec <.L184>:
    30ec:	873e                	mv	a4,a5

00000000000030ee <.L189>:
    30ee:	4581                	li	a1,0
    30f0:	4801                	li	a6,0
    30f2:	4795                	li	a5,5
    30f4:	b4bd                	j	2b62 <.L13>

00000000000030f6 <.L193>:
    30f6:	4581                	li	a1,0

00000000000030f8 <.LVL324>:
    30f8:	8722                	mv	a4,s0

00000000000030fa <.LVL325>:
    30fa:	bb29                	j	2e14 <.L315>

00000000000030fc <.L239>:
    30fc:	882a                	mv	a6,a0
    30fe:	b495                	j	2b62 <.L13>

0000000000003100 <.L49>:
    3100:	47c1                	li	a5,16
    3102:	a88717e3          	bne	a4,s0,2b90 <.L50>
    3106:	a20306e3          	beqz	t1,2b32 <.L298>

000000000000310a <.L53>:
    310a:	0326d713          	srli	a4,a3,0x32

000000000000310e <.LVL329>:
    310e:	8b05                	andi	a4,a4,1
    3110:	a6070de3          	beqz	a4,2b8a <.L177>

0000000000003114 <.LVL330>:
    3114:	a40811e3          	bnez	a6,2b56 <.L314>

0000000000003118 <.L300>:
    3118:	6721                	lui	a4,0x8
    311a:	177d                	addi	a4,a4,-1 # 7fff <.LLST3+0x2251>
    311c:	b011                	j	2920 <.L12>

000000000000311e <.L107>:
    311e:	47c1                	li	a5,16
    3120:	00871763          	bne	a4,s0,312e <.L108>
    3124:	a60808e3          	beqz	a6,2b94 <.L218>
    3128:	8e75                	and	a2,a2,a3
    312a:	a20616e3          	bnez	a2,2b56 <.L314>

000000000000312e <.L108>:
    312e:	a20814e3          	bnez	a6,2b56 <.L314>
    3132:	b48d                	j	2b94 <.L218>

0000000000003134 <__fixtfsi>:
    3134:	862a                	mv	a2,a0
    3136:	002027f3          	frrm	a5

000000000000313a <.LBB2>:
    313a:	6811                	lui	a6,0x4

000000000000313c <.LBB3>:
    313c:	00159693          	slli	a3,a1,0x1
    3140:	01059793          	slli	a5,a1,0x10
    3144:	92c5                	srli	a3,a3,0x31

0000000000003146 <.LBE3>:
    3146:	ffe80713          	addi	a4,a6,-2 # 3ffe <.LLST15+0x2b0>

000000000000314a <.LBB4>:
    314a:	83c1                	srli	a5,a5,0x10

000000000000314c <.LVL2>:
    314c:	91fd                	srli	a1,a1,0x3f

000000000000314e <.LBE4>:
    314e:	00d74763          	blt	a4,a3,315c <.L2>

0000000000003152 <.LVL4>:
    3152:	e2bd                	bnez	a3,31b8 <.L7>
    3154:	8fc9                	or	a5,a5,a0

0000000000003156 <.LVL5>:
    3156:	4501                	li	a0,0

0000000000003158 <.LVL6>:
    3158:	efb1                	bnez	a5,31b4 <.L12>
    315a:	8082                	ret

000000000000315c <.L2>:
    315c:	01d80713          	addi	a4,a6,29
    3160:	02d75463          	bge	a4,a3,3188 <.L5>

0000000000003164 <.LVL8>:
    3164:	80000737          	lui	a4,0x80000
    3168:	fff74713          	not	a4,a4
    316c:	00b7053b          	addw	a0,a4,a1

0000000000003170 <.LVL9>:
    3170:	c5b1                	beqz	a1,31bc <.L9>
    3172:	0879                	addi	a6,a6,30
    3174:	4741                	li	a4,16
    3176:	05069463          	bne	a3,a6,31be <.L3>

000000000000317a <.LBB10>:
    317a:	0117d693          	srli	a3,a5,0x11

000000000000317e <.LVL11>:
    317e:	e2a1                	bnez	a3,31be <.L3>
    3180:	17be                	slli	a5,a5,0x2f

0000000000003182 <.LVL12>:
    3182:	8fd1                	or	a5,a5,a2

0000000000003184 <.LVL13>:
    3184:	eb85                	bnez	a5,31b4 <.L12>
    3186:	8082                	ret

0000000000003188 <.L5>:
    3188:	4705                	li	a4,1
    318a:	1742                	slli	a4,a4,0x30
    318c:	8fd9                	or	a5,a5,a4
    318e:	6611                	lui	a2,0x4
    3190:	7771                	lui	a4,0xffffc
    3192:	2745                	addiw	a4,a4,17 # ffffffffffffc011 <.LLST3+0xffffffffffff6263>
    3194:	02f6061b          	addiw	a2,a2,47 # 402f <.LLST15+0x2e1>
    3198:	9f35                	addw	a4,a4,a3
    319a:	40d606bb          	subw	a3,a2,a3

000000000000319e <.LVL16>:
    319e:	00e79733          	sll	a4,a5,a4
    31a2:	00d7d7b3          	srl	a5,a5,a3

00000000000031a6 <.LVL17>:
    31a6:	8f49                	or	a4,a4,a0

00000000000031a8 <.LVL18>:
    31a8:	0007851b          	sext.w	a0,a5

00000000000031ac <.LVL19>:
    31ac:	c199                	beqz	a1,31b2 <.L6>
    31ae:	40a0053b          	negw	a0,a0

00000000000031b2 <.L6>:
    31b2:	cb01                	beqz	a4,31c2 <.L4>

00000000000031b4 <.L12>:
    31b4:	4705                	li	a4,1
    31b6:	a021                	j	31be <.L3>

00000000000031b8 <.L7>:
    31b8:	4501                	li	a0,0

00000000000031ba <.LVL23>:
    31ba:	bfed                	j	31b4 <.L12>

00000000000031bc <.L9>:
    31bc:	4741                	li	a4,16

00000000000031be <.L3>:
    31be:	00172073          	csrs	fflags,a4

00000000000031c2 <.L4>:
    31c2:	8082                	ret

00000000000031c4 <__floatsitf>:
    31c4:	1101                	addi	sp,sp,-32
    31c6:	ec06                	sd	ra,24(sp)
    31c8:	e822                	sd	s0,16(sp)
    31ca:	e426                	sd	s1,8(sp)

00000000000031cc <.LBB6>:
    31cc:	c529                	beqz	a0,3216 <.L4>

00000000000031ce <.LBB3>:
    31ce:	0005079b          	sext.w	a5,a0

00000000000031d2 <.LVL1>:
    31d2:	03f55493          	srli	s1,a0,0x3f

00000000000031d6 <.LVL2>:
    31d6:	00055463          	bgez	a0,31de <.L3>
    31da:	40f007bb          	negw	a5,a5

00000000000031de <.L3>:
    31de:	02079413          	slli	s0,a5,0x20
    31e2:	9001                	srli	s0,s0,0x20
    31e4:	8522                	mv	a0,s0

00000000000031e6 <.LVL4>:
    31e6:	00000097          	auipc	ra,0x0
    31ea:	000080e7          	jalr	ra # 31e6 <.LVL4>

00000000000031ee <.LVL5>:
    31ee:	6591                	lui	a1,0x4
    31f0:	03e5859b          	addiw	a1,a1,62 # 403e <.LLST15+0x2f0>
    31f4:	9d89                	subw	a1,a1,a0

00000000000031f6 <.LBE4>:
    31f6:	3545                	addiw	a0,a0,-15

00000000000031f8 <.LVL7>:
    31f8:	00a417b3          	sll	a5,s0,a0

00000000000031fc <.L2>:
    31fc:	60e2                	ld	ra,24(sp)
    31fe:	6442                	ld	s0,16(sp)

0000000000003200 <.LBB8>:
    3200:	00f4949b          	slliw	s1,s1,0xf

0000000000003204 <.LVL9>:
    3204:	8dc5                	or	a1,a1,s1

0000000000003206 <.LVL10>:
    3206:	07c2                	slli	a5,a5,0x10

0000000000003208 <.LVL11>:
    3208:	15c2                	slli	a1,a1,0x30
    320a:	83c1                	srli	a5,a5,0x10

000000000000320c <.LBE8>:
    320c:	64a2                	ld	s1,8(sp)
    320e:	4501                	li	a0,0
    3210:	8ddd                	or	a1,a1,a5
    3212:	6105                	addi	sp,sp,32
    3214:	8082                	ret

0000000000003216 <.L4>:
    3216:	4781                	li	a5,0
    3218:	4581                	li	a1,0
    321a:	4481                	li	s1,0
    321c:	b7c5                	j	31fc <.L2>

000000000000321e <__extenddftf2>:
    321e:	1101                	addi	sp,sp,-32
    3220:	e20507d3          	fmv.x.d	a5,fa0
    3224:	ec06                	sd	ra,24(sp)
    3226:	e822                	sd	s0,16(sp)
    3228:	e426                	sd	s1,8(sp)
    322a:	00202773          	frrm	a4

000000000000322e <.LBB2>:
    322e:	0347d513          	srli	a0,a5,0x34
    3232:	7ff57513          	andi	a0,a0,2047
    3236:	00c79413          	slli	s0,a5,0xc
    323a:	03f7d493          	srli	s1,a5,0x3f

000000000000323e <.LBE2>:
    323e:	00150793          	addi	a5,a0,1
    3242:	7fe7f793          	andi	a5,a5,2046

0000000000003246 <.LBB3>:
    3246:	8031                	srli	s0,s0,0xc

0000000000003248 <.LBE3>:
    3248:	cb91                	beqz	a5,325c <.L2>
    324a:	6791                	lui	a5,0x4
    324c:	c0078793          	addi	a5,a5,-1024 # 3c00 <.Ldebug_line0+0xd3>
    3250:	953e                	add	a0,a0,a5

0000000000003252 <.LVL3>:
    3252:	00445793          	srli	a5,s0,0x4

0000000000003256 <.LVL4>:
    3256:	1472                	slli	s0,s0,0x3c

0000000000003258 <.L14>:
    3258:	4701                	li	a4,0
    325a:	a08d                	j	32bc <.L3>

000000000000325c <.L2>:
    325c:	e129                	bnez	a0,329e <.L4>
    325e:	4781                	li	a5,0
    3260:	dc65                	beqz	s0,3258 <.L14>

0000000000003262 <.LBB5>:
    3262:	8522                	mv	a0,s0

0000000000003264 <.LVL7>:
    3264:	00000097          	auipc	ra,0x0
    3268:	000080e7          	jalr	ra # 3264 <.LVL7>

000000000000326c <.LVL8>:
    326c:	0005071b          	sext.w	a4,a0

0000000000003270 <.LVL9>:
    3270:	47b9                	li	a5,14
    3272:	02e7c063          	blt	a5,a4,3292 <.L5>
    3276:	47bd                	li	a5,15
    3278:	9f89                	subw	a5,a5,a0
    327a:	0315071b          	addiw	a4,a0,49
    327e:	00f457b3          	srl	a5,s0,a5

0000000000003282 <.LVL10>:
    3282:	00e41433          	sll	s0,s0,a4

0000000000003286 <.L6>:
    3286:	6711                	lui	a4,0x4
    3288:	c0c7071b          	addiw	a4,a4,-1012 # 3c0c <.Ldebug_line0+0xdf>
    328c:	40a7053b          	subw	a0,a4,a0

0000000000003290 <.LVL12>:
    3290:	b7e1                	j	3258 <.L14>

0000000000003292 <.L5>:
    3292:	ff15079b          	addiw	a5,a0,-15
    3296:	00f417b3          	sll	a5,s0,a5

000000000000329a <.LVL14>:
    329a:	4401                	li	s0,0
    329c:	b7ed                	j	3286 <.L6>

000000000000329e <.L4>:
    329e:	c021                	beqz	s0,32de <.L9>
    32a0:	4685                	li	a3,1
    32a2:	03369713          	slli	a4,a3,0x33
    32a6:	00e43733          	sltu	a4,s0,a4
    32aa:	00445793          	srli	a5,s0,0x4
    32ae:	16be                	slli	a3,a3,0x2f
    32b0:	6521                	lui	a0,0x8

00000000000032b2 <.LVL16>:
    32b2:	0047171b          	slliw	a4,a4,0x4

00000000000032b6 <.LVL17>:
    32b6:	8fd5                	or	a5,a5,a3
    32b8:	1472                	slli	s0,s0,0x3c

00000000000032ba <.LVL18>:
    32ba:	157d                	addi	a0,a0,-1 # 7fff <.LLST3+0x2251>

00000000000032bc <.L3>:
    32bc:	01079593          	slli	a1,a5,0x10
    32c0:	00f4979b          	slliw	a5,s1,0xf

00000000000032c4 <.LVL20>:
    32c4:	8d5d                	or	a0,a0,a5

00000000000032c6 <.LVL21>:
    32c6:	1542                	slli	a0,a0,0x30
    32c8:	81c1                	srli	a1,a1,0x10
    32ca:	8dc9                	or	a1,a1,a0

00000000000032cc <.LBE10>:
    32cc:	c319                	beqz	a4,32d2 <.L1>
    32ce:	00186073          	csrsi	fflags,16

00000000000032d2 <.L1>:
    32d2:	60e2                	ld	ra,24(sp)
    32d4:	8522                	mv	a0,s0
    32d6:	6442                	ld	s0,16(sp)
    32d8:	64a2                	ld	s1,8(sp)

00000000000032da <.LVL23>:
    32da:	6105                	addi	sp,sp,32
    32dc:	8082                	ret

00000000000032de <.L9>:
    32de:	6521                	lui	a0,0x8

00000000000032e0 <.LVL25>:
    32e0:	4781                	li	a5,0
    32e2:	157d                	addi	a0,a0,-1 # 7fff <.LLST3+0x2251>
    32e4:	bf95                	j	3258 <.L14>

00000000000032e6 <__trunctfdf2>:
    32e6:	00202873          	frrm	a6

00000000000032ea <.LBB2>:
    32ea:	68a1                	lui	a7,0x8
    32ec:	0305d713          	srli	a4,a1,0x30
    32f0:	fff88e13          	addi	t3,a7,-1 # 7fff <.LLST3+0x2251>
    32f4:	57fd                	li	a5,-1
    32f6:	0107d693          	srli	a3,a5,0x10
    32fa:	01c77733          	and	a4,a4,t3
    32fe:	03f5d613          	srli	a2,a1,0x3f

0000000000003302 <.LBE2>:
    3302:	00170313          	addi	t1,a4,1

0000000000003306 <.LBB3>:
    3306:	8df5                	and	a1,a1,a3

0000000000003308 <.LBE3>:
    3308:	18f9                	addi	a7,a7,-2
    330a:	058e                	slli	a1,a1,0x3
    330c:	03d55693          	srli	a3,a0,0x3d
    3310:	011378b3          	and	a7,t1,a7
    3314:	8ecd                	or	a3,a3,a1
    3316:	2801                	sext.w	a6,a6

0000000000003318 <.LBB6>:
    3318:	00351593          	slli	a1,a0,0x3

000000000000331c <.LVL2>:
    331c:	10088163          	beqz	a7,341e <.L2>
    3320:	78f1                	lui	a7,0xffffc
    3322:	40088893          	addi	a7,a7,1024 # ffffffffffffc400 <.LLST3+0xffffffffffff6652>
    3326:	9746                	add	a4,a4,a7

0000000000003328 <.LVL3>:
    3328:	7fe00893          	li	a7,2046
    332c:	02e8d463          	bge	a7,a4,3354 <.L3>
    3330:	20080763          	beqz	a6,353e <.L4>
    3334:	470d                	li	a4,3

0000000000003336 <.LVL4>:
    3336:	00e81863          	bne	a6,a4,3346 <.L5>
    333a:	22060163          	beqz	a2,355c <.L6>

000000000000333e <.L77>:
    333e:	7fe00713          	li	a4,2046

0000000000003342 <.LBB8>:
    3342:	4515                	li	a0,5

0000000000003344 <.LVL5>:
    3344:	a259                	j	34ca <.L8>

0000000000003346 <.L5>:
    3346:	4709                	li	a4,2
    3348:	00e81463          	bne	a6,a4,3350 <.L45>
    334c:	20061a63          	bnez	a2,3560 <.L82>

0000000000003350 <.L45>:
    3350:	57fd                	li	a5,-1
    3352:	b7f5                	j	333e <.L77>

0000000000003354 <.L3>:
    3354:	0ae04763          	bgtz	a4,3402 <.L10>
    3358:	fcc00793          	li	a5,-52
    335c:	0cf74663          	blt	a4,a5,3428 <.L46>
    3360:	4785                	li	a5,1
    3362:	17ce                	slli	a5,a5,0x33
    3364:	03d00893          	li	a7,61
    3368:	8edd                	or	a3,a3,a5

000000000000336a <.LVL8>:
    336a:	40e888b3          	sub	a7,a7,a4
    336e:	03f00793          	li	a5,63
    3372:	2701                	sext.w	a4,a4

0000000000003374 <.LVL9>:
    3374:	0717c563          	blt	a5,a7,33de <.L12>
    3378:	03d00793          	li	a5,61
    337c:	0037051b          	addiw	a0,a4,3

0000000000003380 <.LVL10>:
    3380:	9f99                	subw	a5,a5,a4
    3382:	00f5d7b3          	srl	a5,a1,a5
    3386:	00a595b3          	sll	a1,a1,a0

000000000000338a <.LVL11>:
    338a:	00b035b3          	snez	a1,a1
    338e:	8fcd                	or	a5,a5,a1
    3390:	00a696b3          	sll	a3,a3,a0

0000000000003394 <.LVL12>:
    3394:	8fd5                	or	a5,a5,a3

0000000000003396 <.L13>:
    3396:	00179713          	slli	a4,a5,0x1

000000000000339a <.LVL14>:
    339a:	00777693          	andi	a3,a4,7
    339e:	e6d9                	bnez	a3,342c <.L11>

00000000000033a0 <.LBE9>:
    33a0:	0077f593          	andi	a1,a5,7
    33a4:	4701                	li	a4,0
    33a6:	4685                	li	a3,1
    33a8:	4501                	li	a0,0
    33aa:	c185                	beqz	a1,33ca <.L22>

00000000000033ac <.L15>:
    33ac:	4589                	li	a1,2
    33ae:	12b80f63          	beq	a6,a1,34ec <.L32>

00000000000033b2 <.L27>:
    33b2:	458d                	li	a1,3
    33b4:	10b80863          	beq	a6,a1,34c4 <.L33>
    33b8:	12081d63          	bnez	a6,34f2 <.L34>

00000000000033bc <.LVL18>:
    33bc:	00f7f593          	andi	a1,a5,15
    33c0:	4511                	li	a0,4
    33c2:	0ea59b63          	bne	a1,a0,34b8 <.L35>

00000000000033c6 <.LVL19>:
    33c6:	4505                	li	a0,1
    33c8:	e6e9                	bnez	a3,3492 <.L79>

00000000000033ca <.L22>:
    33ca:	7ff00693          	li	a3,2047
    33ce:	838d                	srli	a5,a5,0x3
    33d0:	08d71b63          	bne	a4,a3,3466 <.L21>
    33d4:	cbc9                	beqz	a5,3466 <.L21>
    33d6:	4785                	li	a5,1

00000000000033d8 <.LVL22>:
    33d8:	17ce                	slli	a5,a5,0x33

00000000000033da <.LVL23>:
    33da:	4601                	li	a2,0
    33dc:	a069                	j	3466 <.L21>

00000000000033de <.L12>:
    33de:	5575                	li	a0,-3

00000000000033e0 <.LVL25>:
    33e0:	9d19                	subw	a0,a0,a4
    33e2:	04000313          	li	t1,64

00000000000033e6 <.LVL26>:
    33e6:	00a6d533          	srl	a0,a3,a0
    33ea:	4781                	li	a5,0
    33ec:	00688663          	beq	a7,t1,33f8 <.L14>
    33f0:	0437071b          	addiw	a4,a4,67
    33f4:	00e697b3          	sll	a5,a3,a4

00000000000033f8 <.L14>:
    33f8:	8fcd                	or	a5,a5,a1
    33fa:	00f037b3          	snez	a5,a5
    33fe:	8fc9                	or	a5,a5,a0

0000000000003400 <.LBB19>:
    3400:	bf59                	j	3396 <.L13>

0000000000003402 <.L10>:
    3402:	051e                	slli	a0,a0,0x7

0000000000003404 <.LVL29>:
    3404:	00a03533          	snez	a0,a0
    3408:	91f1                	srli	a1,a1,0x3c

000000000000340a <.LVL30>:
    340a:	8d4d                	or	a0,a0,a1
    340c:	00469793          	slli	a5,a3,0x4
    3410:	8fc9                	or	a5,a5,a0

0000000000003412 <.LBB21>:
    3412:	891d                	andi	a0,a0,7
    3414:	4681                	li	a3,0
    3416:	f959                	bnez	a0,33ac <.L15>

0000000000003418 <.LVL32>:
    3418:	838d                	srli	a5,a5,0x3

000000000000341a <.LBE21>:
    341a:	4501                	li	a0,0
    341c:	a0a9                	j	3466 <.L21>

000000000000341e <.L2>:
    341e:	8dd5                	or	a1,a1,a3

0000000000003420 <.LVL35>:
    3420:	e705                	bnez	a4,3448 <.L17>

0000000000003422 <.LBB22>:
    3422:	03f61793          	slli	a5,a2,0x3f

0000000000003426 <.LBE22>:
    3426:	c9b1                	beqz	a1,347a <.L1>

0000000000003428 <.L46>:
    3428:	4785                	li	a5,1

000000000000342a <.LBB10>:
    342a:	4709                	li	a4,2

000000000000342c <.L11>:
    342c:	4689                	li	a3,2
    342e:	0077f513          	andi	a0,a5,7
    3432:	08d80163          	beq	a6,a3,34b4 <.L23>
    3436:	468d                	li	a3,3
    3438:	04d80f63          	beq	a6,a3,3496 <.L24>
    343c:	04080263          	beqz	a6,3480 <.L25>

0000000000003440 <.L84>:
    3440:	4701                	li	a4,0

0000000000003442 <.LBB11>:
    3442:	4685                	li	a3,1

0000000000003444 <.LBE11>:
    3444:	f525                	bnez	a0,33ac <.L15>
    3446:	a0b1                	j	3492 <.L79>

0000000000003448 <.L17>:
    3448:	10058363          	beqz	a1,354e <.L19>
    344c:	4501                	li	a0,0

000000000000344e <.LVL41>:
    344e:	01c71763          	bne	a4,t3,345c <.L20>
    3452:	92c9                	srli	a3,a3,0x32
    3454:	0016c693          	xori	a3,a3,1
    3458:	00469513          	slli	a0,a3,0x4

000000000000345c <.L20>:
    345c:	4785                	li	a5,1
    345e:	4601                	li	a2,0
    3460:	7ff00713          	li	a4,2047

0000000000003464 <.LVL43>:
    3464:	17ce                	slli	a5,a5,0x33

0000000000003466 <.L21>:
    3466:	7ff77713          	andi	a4,a4,2047
    346a:	07b2                	slli	a5,a5,0xc

000000000000346c <.LVL45>:
    346c:	83b1                	srli	a5,a5,0xc
    346e:	1752                	slli	a4,a4,0x34
    3470:	8f5d                	or	a4,a4,a5
    3472:	03f61793          	slli	a5,a2,0x3f
    3476:	8fd9                	or	a5,a5,a4

0000000000003478 <.LBE25>:
    3478:	e94d                	bnez	a0,352a <.L43>

000000000000347a <.L1>:
    347a:	f2078553          	fmv.d.x	fa0,a5
    347e:	8082                	ret

0000000000003480 <.L25>:
    3480:	00f77593          	andi	a1,a4,15
    3484:	4691                	li	a3,4
    3486:	0711                	addi	a4,a4,4
    3488:	00d59963          	bne	a1,a3,349a <.L28>

000000000000348c <.LBE12>:
    348c:	4685                	li	a3,1
    348e:	4701                	li	a4,0
    3490:	f10d                	bnez	a0,33b2 <.L27>

0000000000003492 <.L79>:
    3492:	450d                	li	a0,3
    3494:	bf1d                	j	33ca <.L22>

0000000000003496 <.L24>:
    3496:	f64d                	bnez	a2,3440 <.L84>

0000000000003498 <.L30>:
    3498:	0721                	addi	a4,a4,8

000000000000349a <.L28>:
    349a:	4685                	li	a3,1
    349c:	16e2                	slli	a3,a3,0x38
    349e:	00d775b3          	and	a1,a4,a3
    34a2:	0015b693          	seqz	a3,a1

00000000000034a6 <.LBE13>:
    34a6:	4701                	li	a4,0
    34a8:	f111                	bnez	a0,33ac <.L15>

00000000000034aa <.LVL53>:
    34aa:	450d                	li	a0,3
    34ac:	dd99                	beqz	a1,33ca <.L22>

00000000000034ae <.LVL54>:
    34ae:	838d                	srli	a5,a5,0x3
    34b0:	4505                	li	a0,1
    34b2:	bf55                	j	3466 <.L21>

00000000000034b4 <.L23>:
    34b4:	f275                	bnez	a2,3498 <.L30>
    34b6:	b769                	j	3440 <.L84>

00000000000034b8 <.L35>:
    34b8:	0791                	addi	a5,a5,4

00000000000034ba <.L87>:
    34ba:	4505                	li	a0,1
    34bc:	c699                	beqz	a3,34ca <.L8>

00000000000034be <.L36>:
    34be:	0026e513          	ori	a0,a3,2

00000000000034c2 <.LVL59>:
    34c2:	a021                	j	34ca <.L8>

00000000000034c4 <.L33>:
    34c4:	c60d                	beqz	a2,34ee <.L38>
    34c6:	4505                	li	a0,1

00000000000034c8 <.LVL61>:
    34c8:	ea85                	bnez	a3,34f8 <.L58>

00000000000034ca <.L8>:
    34ca:	0377d693          	srli	a3,a5,0x37
    34ce:	8a85                	andi	a3,a3,1
    34d0:	ee068de3          	beqz	a3,33ca <.L22>

00000000000034d4 <.LVL63>:
    34d4:	0705                	addi	a4,a4,1

00000000000034d6 <.LVL64>:
    34d6:	7ff00693          	li	a3,2047
    34da:	02d70163          	beq	a4,a3,34fc <.L39>
    34de:	1ff00693          	li	a3,511
    34e2:	16d2                	slli	a3,a3,0x34
    34e4:	838d                	srli	a5,a5,0x3

00000000000034e6 <.LVL65>:
    34e6:	16fd                	addi	a3,a3,-1
    34e8:	8ff5                	and	a5,a5,a3

00000000000034ea <.LVL66>:
    34ea:	bfb5                	j	3466 <.L21>

00000000000034ec <.L32>:
    34ec:	d679                	beqz	a2,34ba <.L87>

00000000000034ee <.L38>:
    34ee:	07a1                	addi	a5,a5,8
    34f0:	b7e9                	j	34ba <.L87>

00000000000034f2 <.L34>:
    34f2:	4505                	li	a0,1
    34f4:	f6e9                	bnez	a3,34be <.L36>
    34f6:	bfd1                	j	34ca <.L8>

00000000000034f8 <.L58>:
    34f8:	4685                	li	a3,1
    34fa:	b7d1                	j	34be <.L36>

00000000000034fc <.L39>:
    34fc:	00556513          	ori	a0,a0,5

0000000000003500 <.LVL72>:
    3500:	02080863          	beqz	a6,3530 <.L40>
    3504:	478d                	li	a5,3

0000000000003506 <.LVL73>:
    3506:	00f81a63          	bne	a6,a5,351a <.L41>
    350a:	c21d                	beqz	a2,3530 <.L40>

000000000000350c <.L42>:
    350c:	7ff00713          	li	a4,2047
    3510:	1752                	slli	a4,a4,0x34
    3512:	03f61793          	slli	a5,a2,0x3f
    3516:	177d                	addi	a4,a4,-1
    3518:	a00d                	j	353a <.L80>

000000000000351a <.L41>:
    351a:	4789                	li	a5,2
    351c:	fef818e3          	bne	a6,a5,350c <.L42>
    3520:	ea01                	bnez	a2,3530 <.L40>

0000000000003522 <.LBB29>:
    3522:	00000797          	auipc	a5,0x0
    3526:	0007b783          	ld	a5,0(a5) # 3522 <.LBB29>

000000000000352a <.L43>:
    352a:	00152073          	csrs	fflags,a0
    352e:	b7b1                	j	347a <.L1>

0000000000003530 <.L40>:
    3530:	7ff00713          	li	a4,2047
    3534:	03f61793          	slli	a5,a2,0x3f
    3538:	1752                	slli	a4,a4,0x34

000000000000353a <.L80>:
    353a:	8fd9                	or	a5,a5,a4

000000000000353c <.LBE32>:
    353c:	b7fd                	j	352a <.L43>

000000000000353e <.L4>:
    353e:	7ff00713          	li	a4,2047

0000000000003542 <.LVL82>:
    3542:	03f61793          	slli	a5,a2,0x3f
    3546:	1752                	slli	a4,a4,0x34
    3548:	8fd9                	or	a5,a5,a4

000000000000354a <.L81>:
    354a:	4515                	li	a0,5

000000000000354c <.LVL84>:
    354c:	bff9                	j	352a <.L43>

000000000000354e <.L19>:
    354e:	7ff00793          	li	a5,2047
    3552:	03f61713          	slli	a4,a2,0x3f

0000000000003556 <.LVL86>:
    3556:	17d2                	slli	a5,a5,0x34
    3558:	8fd9                	or	a5,a5,a4

000000000000355a <.LBE36>:
    355a:	b705                	j	347a <.L1>

000000000000355c <.L6>:
    355c:	7ff00793          	li	a5,2047

0000000000003560 <.L82>:
    3560:	17d2                	slli	a5,a5,0x34
    3562:	b7e5                	j	354a <.L81>

0000000000003564 <__clzdi2>:
    3564:	03855793          	srli	a5,a0,0x38
    3568:	eb8d                	bnez	a5,359a <.L5>
    356a:	03800793          	li	a5,56

000000000000356e <.L3>:
    356e:	17e1                	addi	a5,a5,-8
    3570:	c791                	beqz	a5,357c <.L2>
    3572:	00f55733          	srl	a4,a0,a5
    3576:	0ff77713          	zext.b	a4,a4
    357a:	db75                	beqz	a4,356e <.L3>

000000000000357c <.L2>:
    357c:	04000713          	li	a4,64
    3580:	8f1d                	sub	a4,a4,a5
    3582:	00f55533          	srl	a0,a0,a5

0000000000003586 <.LVL4>:
    3586:	00000797          	auipc	a5,0x0
    358a:	00078793          	mv	a5,a5
    358e:	97aa                	add	a5,a5,a0
    3590:	0007c503          	lbu	a0,0(a5) # 3586 <.LVL4>

0000000000003594 <.LBE3>:
    3594:	40a7053b          	subw	a0,a4,a0
    3598:	8082                	ret

000000000000359a <.L5>:
    359a:	03800793          	li	a5,56
    359e:	bff9                	j	357c <.L2>

Дизассемблирование раздела .text.startup:

0000000000000000 <main>:
   0:	000016b7          	lui	a3,0x1
   4:	81010113          	addi	sp,sp,-2032
   8:	85068713          	addi	a4,a3,-1968 # 850 <.L46+0x34>
   c:	fffff7b7          	lui	a5,0xfffff
  10:	7e113423          	sd	ra,2024(sp)
  14:	7e813023          	sd	s0,2016(sp)
  18:	7c913c23          	sd	s1,2008(sp)
  1c:	7d213823          	sd	s2,2000(sp)
  20:	7d313423          	sd	s3,1992(sp)
  24:	7d413023          	sd	s4,1984(sp)
  28:	7b513c23          	sd	s5,1976(sp)
  2c:	7b613823          	sd	s6,1968(sp)
  30:	7b713423          	sd	s7,1960(sp)
  34:	7b813023          	sd	s8,1952(sp)
  38:	79913c23          	sd	s9,1944(sp)
  3c:	79a13823          	sd	s10,1936(sp)
  40:	79b13423          	sd	s11,1928(sp)
  44:	76813c27          	fsd	fs0,1912(sp)
  48:	00f70733          	add	a4,a4,a5
  4c:	f2010113          	addi	sp,sp,-224
  50:	00058613          	mv	a2,a1
  54:	7bc78593          	addi	a1,a5,1980 # fffffffffffff7bc <.LLST3+0xffffffffffff9a0e>
  58:	002707b3          	add	a5,a4,sp
  5c:	00f13023          	sd	a5,0(sp)
  60:	00013703          	ld	a4,0(sp)
  64:	85068793          	addi	a5,a3,-1968
  68:	00b787b3          	add	a5,a5,a1
  6c:	002785b3          	add	a1,a5,sp
  70:	00050793          	mv	a5,a0
  74:	07a10513          	addi	a0,sp,122
  78:	7af72e23          	sw	a5,1980(a4)
  7c:	00000097          	auipc	ra,0x0
  80:	000080e7          	jalr	ra # 7c <main+0x7c>
  84:	00100513          	li	a0,1
  88:	00000097          	auipc	ra,0x0
  8c:	000080e7          	jalr	ra # 88 <main+0x88>
  90:	00013703          	ld	a4,0(sp)
  94:	00050793          	mv	a5,a0
  98:	00200513          	li	a0,2
  9c:	7cf71023          	sh	a5,1984(a4)
  a0:	00000097          	auipc	ra,0x0
  a4:	000080e7          	jalr	ra # a0 <main+0xa0>
  a8:	00013703          	ld	a4,0(sp)
  ac:	00050793          	mv	a5,a0
  b0:	00300513          	li	a0,3
  b4:	7cf71123          	sh	a5,1986(a4)
  b8:	00000097          	auipc	ra,0x0
  bc:	000080e7          	jalr	ra # b8 <main+0xb8>
  c0:	00013703          	ld	a4,0(sp)
  c4:	00050793          	mv	a5,a0
  c8:	00400513          	li	a0,4
  cc:	7cf71223          	sh	a5,1988(a4)
  d0:	00000097          	auipc	ra,0x0
  d4:	000080e7          	jalr	ra # d0 <main+0xd0>
  d8:	00013703          	ld	a4,0(sp)
  dc:	00050793          	mv	a5,a0
  e0:	00500513          	li	a0,5
  e4:	7ef72623          	sw	a5,2028(a4)
  e8:	00000097          	auipc	ra,0x0
  ec:	000080e7          	jalr	ra # e8 <main+0xe8>
  f0:	0005051b          	sext.w	a0,a0
  f4:	00051463          	bnez	a0,fc <.L12>
  f8:	00700513          	li	a0,7

00000000000000fc <.L12>:
  fc:	00001737          	lui	a4,0x1
 100:	fffff7b7          	lui	a5,0xfffff
 104:	85070713          	addi	a4,a4,-1968 # 850 <.L46+0x34>
 108:	00f70733          	add	a4,a4,a5
 10c:	002707b3          	add	a5,a4,sp
 110:	00f13023          	sd	a5,0(sp)
 114:	00013703          	ld	a4,0(sp)
 118:	7c07b783          	ld	a5,1984(a5) # fffffffffffff7c0 <.LLST3+0xffffffffffff9a12>
 11c:	7ea72823          	sw	a0,2032(a4)
 120:	01079793          	slli	a5,a5,0x10
 124:	00079863          	bnez	a5,134 <.L13>
 128:	06600793          	li	a5,102
 12c:	7c072023          	sw	zero,1984(a4)
 130:	7cf71223          	sh	a5,1988(a4)

0000000000000134 <.L13>:
 134:	00001737          	lui	a4,0x1
 138:	fffff7b7          	lui	a5,0xfffff
 13c:	85070713          	addi	a4,a4,-1968 # 850 <.L46+0x34>
 140:	00f70733          	add	a4,a4,a5
 144:	002707b3          	add	a5,a4,sp
 148:	00f13023          	sd	a5,0(sp)
 14c:	7c07b783          	ld	a5,1984(a5) # fffffffffffff7c0 <.LLST3+0xffffffffffff9a12>
 150:	00100713          	li	a4,1
 154:	01079793          	slli	a5,a5,0x10
 158:	0107d793          	srli	a5,a5,0x10
 15c:	00e79e63          	bne	a5,a4,178 <.L14>
 160:	00013703          	ld	a4,0(sp)
 164:	341537b7          	lui	a5,0x34153
 168:	41578793          	addi	a5,a5,1045 # 34153415 <.LLST3+0x3414d667>
 16c:	7cf72023          	sw	a5,1984(a4)
 170:	06600793          	li	a5,102
 174:	7cf71223          	sh	a5,1988(a4)

0000000000000178 <.L14>:
 178:	000015b7          	lui	a1,0x1
 17c:	fffff6b7          	lui	a3,0xfffff
 180:	85058593          	addi	a1,a1,-1968 # 850 <.L46+0x34>
 184:	00d585b3          	add	a1,a1,a3
 188:	002586b3          	add	a3,a1,sp
 18c:	08010613          	addi	a2,sp,128
 190:	00257793          	andi	a5,a0,2
 194:	00157713          	andi	a4,a0,1
 198:	00f037b3          	snez	a5,a5
 19c:	00d13023          	sd	a3,0(sp)
 1a0:	7cc6b423          	sd	a2,1992(a3) # fffffffffffff7c8 <.LLST3+0xffffffffffff9a1a>
 1a4:	06011c23          	sh	zero,120(sp)
 1a8:	00457693          	andi	a3,a0,4
 1ac:	00f70733          	add	a4,a4,a5
 1b0:	00068863          	beqz	a3,1c0 <.L16>
 1b4:	0017071b          	addiw	a4,a4,1
 1b8:	03071713          	slli	a4,a4,0x30
 1bc:	03075713          	srli	a4,a4,0x30

00000000000001c0 <.L16>:
 1c0:	7d000793          	li	a5,2000
 1c4:	02e7d33b          	divuw	t1,a5,a4
 1c8:	000016b7          	lui	a3,0x1
 1cc:	fffff7b7          	lui	a5,0xfffff
 1d0:	7c078793          	addi	a5,a5,1984 # fffffffffffff7c0 <.LLST3+0xffffffffffff9a12>
 1d4:	85068693          	addi	a3,a3,-1968 # 850 <.L46+0x34>
 1d8:	00f686b3          	add	a3,a3,a5
 1dc:	002687b3          	add	a5,a3,sp
 1e0:	00000593          	li	a1,0
 1e4:	00000693          	li	a3,0
 1e8:	00100893          	li	a7,1
 1ec:	00300813          	li	a6,3
 1f0:	02612c23          	sw	t1,56(sp)

00000000000001f4 <.L18>:
 1f4:	00d8973b          	sllw	a4,a7,a3
 1f8:	00e57733          	and	a4,a0,a4
 1fc:	0007071b          	sext.w	a4,a4
 200:	0016869b          	addiw	a3,a3,1
 204:	7e071c63          	bnez	a4,9fc <.L104>

0000000000000208 <.L17>:
 208:	00878793          	addi	a5,a5,8
 20c:	ff0694e3          	bne	a3,a6,1f4 <.L18>
 210:	00001737          	lui	a4,0x1
 214:	fffff7b7          	lui	a5,0xfffff
 218:	85070713          	addi	a4,a4,-1968 # 850 <.L46+0x34>
 21c:	00f70733          	add	a4,a4,a5
 220:	002707b3          	add	a5,a4,sp
 224:	00f13023          	sd	a5,0(sp)
 228:	7f07a783          	lw	a5,2032(a5) # fffffffffffff7f0 <.LLST3+0xffffffffffff9a42>
 22c:	0017f713          	andi	a4,a5,1
 230:	02070663          	beqz	a4,25c <.L60>
 234:	00013783          	ld	a5,0(sp)
 238:	7c079603          	lh	a2,1984(a5)
 23c:	7d07b583          	ld	a1,2000(a5)
 240:	7e87a503          	lw	a0,2024(a5)
 244:	00000097          	auipc	ra,0x0
 248:	000080e7          	jalr	ra # 244 <.L17+0x3c>
 24c:	00013783          	ld	a5,0(sp)
 250:	00013703          	ld	a4,0(sp)
 254:	7f07a783          	lw	a5,2032(a5)
 258:	7ea73c23          	sd	a0,2040(a4)

000000000000025c <.L60>:
 25c:	0027f713          	andi	a4,a5,2
 260:	32071463          	bnez	a4,588 <.L105>

0000000000000264 <.L20>:
 264:	0047f793          	andi	a5,a5,4
 268:	02078863          	beqz	a5,298 <.L21>
 26c:	00001737          	lui	a4,0x1
 270:	fffff7b7          	lui	a5,0xfffff
 274:	85070713          	addi	a4,a4,-1968 # 850 <.L46+0x34>
 278:	00f70733          	add	a4,a4,a5
 27c:	002707b3          	add	a5,a4,sp
 280:	7e07b603          	ld	a2,2016(a5) # fffffffffffff7e0 <.LLST3+0xffffffffffff9a32>
 284:	7c079583          	lh	a1,1984(a5)
 288:	7e87a503          	lw	a0,2024(a5)
 28c:	00f13023          	sd	a5,0(sp)
 290:	00000097          	auipc	ra,0x0
 294:	000080e7          	jalr	ra # 290 <.L20+0x2c>

0000000000000298 <.L21>:
 298:	03c12783          	lw	a5,60(sp)
 29c:	fffff437          	lui	s0,0xfffff
 2a0:	0a079663          	bnez	a5,34c <.L22>
 2a4:	00100793          	li	a5,1
 2a8:	02f12e23          	sw	a5,60(sp)
 2ac:	00000797          	auipc	a5,0x0
 2b0:	0007b407          	fld	fs0,0(a5) # 2ac <.L21+0x14>
 2b4:	000017b7          	lui	a5,0x1
 2b8:	7c040413          	addi	s0,s0,1984 # fffffffffffff7c0 <.LLST3+0xffffffffffff9a12>
 2bc:	85078793          	addi	a5,a5,-1968 # 850 <.L46+0x34>
 2c0:	008787b3          	add	a5,a5,s0
 2c4:	00278433          	add	s0,a5,sp

00000000000002c8 <.L23>:
 2c8:	03c12703          	lw	a4,60(sp)
 2cc:	0027179b          	slliw	a5,a4,0x2
 2d0:	00e787bb          	addw	a5,a5,a4
 2d4:	0017979b          	slliw	a5,a5,0x1
 2d8:	02f12e23          	sw	a5,60(sp)
 2dc:	00000097          	auipc	ra,0x0
 2e0:	000080e7          	jalr	ra # 2dc <.L23+0x14>
 2e4:	00040513          	mv	a0,s0
 2e8:	00000097          	auipc	ra,0x0
 2ec:	000080e7          	jalr	ra # 2e8 <.L23+0x20>
 2f0:	00000097          	auipc	ra,0x0
 2f4:	000080e7          	jalr	ra # 2f0 <.L23+0x28>
 2f8:	00000097          	auipc	ra,0x0
 2fc:	000080e7          	jalr	ra # 2f8 <.L23+0x30>
 300:	00000097          	auipc	ra,0x0
 304:	000080e7          	jalr	ra # 300 <.L23+0x38>
 308:	a28517d3          	flt.d	a5,fa0,fs0
 30c:	fa079ee3          	bnez	a5,2c8 <.L23>
 310:	c2151753          	fcvt.wu.d	a4,fa0,rtz
 314:	0007079b          	sext.w	a5,a4
 318:	70078a63          	beqz	a5,a2c <.L106>

000000000000031c <.L24>:
 31c:	00a00793          	li	a5,10
 320:	02e7d7bb          	divuw	a5,a5,a4
 324:	000016b7          	lui	a3,0x1
 328:	fffff737          	lui	a4,0xfffff
 32c:	85068693          	addi	a3,a3,-1968 # 850 <.L46+0x34>
 330:	00e686b3          	add	a3,a3,a4
 334:	00268733          	add	a4,a3,sp
 338:	00e13023          	sd	a4,0(sp)
 33c:	7ec72703          	lw	a4,2028(a4) # fffffffffffff7ec <.LLST3+0xffffffffffff9a3e>
 340:	0017879b          	addiw	a5,a5,1
 344:	02e787bb          	mulw	a5,a5,a4
 348:	02f12e23          	sw	a5,60(sp)

000000000000034c <.L22>:
 34c:	00000097          	auipc	ra,0x0
 350:	000080e7          	jalr	ra # 34c <.L22>
 354:	fffff437          	lui	s0,0xfffff
 358:	000014b7          	lui	s1,0x1
 35c:	7c040513          	addi	a0,s0,1984 # fffffffffffff7c0 <.LLST3+0xffffffffffff9a12>
 360:	85048793          	addi	a5,s1,-1968 # 850 <.L46+0x34>
 364:	00a787b3          	add	a5,a5,a0
 368:	00278533          	add	a0,a5,sp
 36c:	00000097          	auipc	ra,0x0
 370:	000080e7          	jalr	ra # 36c <.L22+0x20>
 374:	00000097          	auipc	ra,0x0
 378:	000080e7          	jalr	ra # 374 <.L22+0x28>
 37c:	00000097          	auipc	ra,0x0
 380:	000080e7          	jalr	ra # 37c <.L22+0x30>
 384:	85048793          	addi	a5,s1,-1968
 388:	008787b3          	add	a5,a5,s0
 38c:	002787b3          	add	a5,a5,sp
 390:	00050913          	mv	s2,a0
 394:	7c079503          	lh	a0,1984(a5)
 398:	00000593          	li	a1,0
 39c:	00f13023          	sd	a5,0(sp)
 3a0:	00000097          	auipc	ra,0x0
 3a4:	000080e7          	jalr	ra # 3a0 <.L22+0x54>
 3a8:	00013783          	ld	a5,0(sp)
 3ac:	00050593          	mv	a1,a0
 3b0:	7c279503          	lh	a0,1986(a5)
 3b4:	00000097          	auipc	ra,0x0
 3b8:	000080e7          	jalr	ra # 3b4 <.L22+0x68>
 3bc:	00013783          	ld	a5,0(sp)
 3c0:	00050593          	mv	a1,a0
 3c4:	7c479503          	lh	a0,1988(a5)
 3c8:	00000097          	auipc	ra,0x0
 3cc:	000080e7          	jalr	ra # 3c8 <.L22+0x7c>
 3d0:	00013783          	ld	a5,0(sp)
 3d4:	00050593          	mv	a1,a0
 3d8:	7e879503          	lh	a0,2024(a5)
 3dc:	00000097          	auipc	ra,0x0
 3e0:	000080e7          	jalr	ra # 3dc <.L22+0x90>
 3e4:	000087b7          	lui	a5,0x8
 3e8:	00050a9b          	sext.w	s5,a0
 3ec:	b0578793          	addi	a5,a5,-1275 # 7b05 <.LLST3+0x1d57>
 3f0:	72fa8a63          	beq	s5,a5,b24 <.L25>
 3f4:	2157e863          	bltu	a5,s5,604 <.L26>
 3f8:	000027b7          	lui	a5,0x2
 3fc:	8f278793          	addi	a5,a5,-1806 # 18f2 <.LASF15+0x5>
 400:	6efa8a63          	beq	s5,a5,af4 <.L27>
 404:	000057b7          	lui	a5,0x5
 408:	eaf78793          	addi	a5,a5,-337 # 4eaf <.LLST8+0x27>
 40c:	72fa9863          	bne	s5,a5,b3c <.L102>
 410:	00000517          	auipc	a0,0x0
 414:	00050513          	mv	a0,a0
 418:	00000097          	auipc	ra,0x0
 41c:	000080e7          	jalr	ra # 418 <.L22+0xcc>
 420:	00200993          	li	s3,2

0000000000000424 <.L32>:
 424:	00000497          	auipc	s1,0x0
 428:	00048493          	mv	s1,s1
 42c:	0004a783          	lw	a5,0(s1) # 424 <.L32>
 430:	20078263          	beqz	a5,634 <.L61>
 434:	00001737          	lui	a4,0x1
 438:	fffff6b7          	lui	a3,0xfffff
 43c:	85070713          	addi	a4,a4,-1968 # 850 <.L46+0x34>
 440:	00d70733          	add	a4,a4,a3
 444:	00199793          	slli	a5,s3,0x1
 448:	00270733          	add	a4,a4,sp
 44c:	00000d97          	auipc	s11,0x0
 450:	000d8d93          	mv	s11,s11
 454:	00000b13          	li	s6,0
 458:	00000c93          	li	s9,0
 45c:	00000a13          	li	s4,0
 460:	00e13023          	sd	a4,0(sp)
 464:	00001d37          	lui	s10,0x1
 468:	00fd8db3          	add	s11,s11,a5
 46c:	0480006f          	j	4b4 <.L38>

0000000000000470 <.L107>:
 470:	00013703          	ld	a4,0(sp)
 474:	414407b3          	sub	a5,s0,s4
 478:	00479793          	slli	a5,a5,0x4
 47c:	00f707b3          	add	a5,a4,a5
 480:	00fd07b3          	add	a5,s10,a5
 484:	8287d783          	lhu	a5,-2008(a5)

0000000000000488 <.L36>:
 488:	001c8c9b          	addiw	s9,s9,1
 48c:	0004a683          	lw	a3,0(s1)
 490:	00fb07bb          	addw	a5,s6,a5
 494:	030c9c93          	slli	s9,s9,0x30
 498:	030cdc93          	srli	s9,s9,0x30
 49c:	03079413          	slli	s0,a5,0x30
 4a0:	01079b1b          	slliw	s6,a5,0x10
 4a4:	03045413          	srli	s0,s0,0x30
 4a8:	410b5b1b          	sraiw	s6,s6,0x10
 4ac:	000c8a1b          	sext.w	s4,s9
 4b0:	18dcf463          	bgeu	s9,a3,638 <.L29>

00000000000004b4 <.L38>:
 4b4:	00013783          	ld	a5,0(sp)
 4b8:	003a1413          	slli	s0,s4,0x3
 4bc:	41440c33          	sub	s8,s0,s4
 4c0:	004c1c13          	slli	s8,s8,0x4
 4c4:	01878c33          	add	s8,a5,s8
 4c8:	7f0c2783          	lw	a5,2032(s8)
 4cc:	018d0bb3          	add	s7,s10,s8
 4d0:	820b9423          	sh	zero,-2008(s7)
 4d4:	0017f693          	andi	a3,a5,1
 4d8:	02068a63          	beqz	a3,50c <.L33>
 4dc:	822bd603          	lhu	a2,-2014(s7)
 4e0:	000dd683          	lhu	a3,0(s11) # 44c <.L32+0x28>
 4e4:	02d60463          	beq	a2,a3,50c <.L33>
 4e8:	000a0593          	mv	a1,s4
 4ec:	00000517          	auipc	a0,0x0
 4f0:	00050513          	mv	a0,a0
 4f4:	00000097          	auipc	ra,0x0
 4f8:	000080e7          	jalr	ra # 4f4 <.L38+0x40>
 4fc:	828bd683          	lhu	a3,-2008(s7)
 500:	7f0c2783          	lw	a5,2032(s8)
 504:	0016869b          	addiw	a3,a3,1 # fffffffffffff001 <.LLST3+0xffffffffffff9253>
 508:	82db9423          	sh	a3,-2008(s7)

000000000000050c <.L33>:
 50c:	0027f693          	andi	a3,a5,2
 510:	04068463          	beqz	a3,558 <.L34>
 514:	00013703          	ld	a4,0(sp)
 518:	41440c33          	sub	s8,s0,s4
 51c:	004c1c13          	slli	s8,s8,0x4
 520:	01870c33          	add	s8,a4,s8
 524:	018d0bb3          	add	s7,s10,s8
 528:	824bd603          	lhu	a2,-2012(s7)
 52c:	010dd683          	lhu	a3,16(s11)
 530:	02d60463          	beq	a2,a3,558 <.L34>
 534:	000a0593          	mv	a1,s4
 538:	00000517          	auipc	a0,0x0
 53c:	00050513          	mv	a0,a0
 540:	00000097          	auipc	ra,0x0
 544:	000080e7          	jalr	ra # 540 <.L33+0x34>
 548:	828bd683          	lhu	a3,-2008(s7)
 54c:	7f0c2783          	lw	a5,2032(s8)
 550:	0016869b          	addiw	a3,a3,1
 554:	82db9423          	sh	a3,-2008(s7)

0000000000000558 <.L34>:
 558:	0047f793          	andi	a5,a5,4
 55c:	f0078ae3          	beqz	a5,470 <.L107>
 560:	00013783          	ld	a5,0(sp)
 564:	41440433          	sub	s0,s0,s4
 568:	00441413          	slli	s0,s0,0x4
 56c:	00878433          	add	s0,a5,s0
 570:	008d0433          	add	s0,s10,s0
 574:	82645603          	lhu	a2,-2010(s0)
 578:	020dd683          	lhu	a3,32(s11)
 57c:	04d61e63          	bne	a2,a3,5d8 <.L37>
 580:	82845783          	lhu	a5,-2008(s0)
 584:	f05ff06f          	j	488 <.L36>

0000000000000588 <.L105>:
 588:	00001737          	lui	a4,0x1
 58c:	fffff7b7          	lui	a5,0xfffff
 590:	85070713          	addi	a4,a4,-1968 # 850 <.L46+0x34>
 594:	00f70733          	add	a4,a4,a5
 598:	002707b3          	add	a5,a4,sp
 59c:	00f13023          	sd	a5,0(sp)
 5a0:	7c279603          	lh	a2,1986(a5) # fffffffffffff7c2 <.LLST3+0xffffffffffff9a14>
 5a4:	00013703          	ld	a4,0(sp)
 5a8:	7c079783          	lh	a5,1984(a5)
 5ac:	0106161b          	slliw	a2,a2,0x10
 5b0:	7d873583          	ld	a1,2008(a4)
 5b4:	7e872503          	lw	a0,2024(a4)
 5b8:	00f66633          	or	a2,a2,a5
 5bc:	05010693          	addi	a3,sp,80
 5c0:	0006061b          	sext.w	a2,a2
 5c4:	00000097          	auipc	ra,0x0
 5c8:	000080e7          	jalr	ra # 5c4 <.L105+0x3c>
 5cc:	00013783          	ld	a5,0(sp)
 5d0:	7f07a783          	lw	a5,2032(a5)
 5d4:	c91ff06f          	j	264 <.L20>

00000000000005d8 <.L37>:
 5d8:	000a0593          	mv	a1,s4
 5dc:	00000517          	auipc	a0,0x0
 5e0:	00050513          	mv	a0,a0
 5e4:	00000097          	auipc	ra,0x0
 5e8:	000080e7          	jalr	ra # 5e4 <.L37+0xc>
 5ec:	82845783          	lhu	a5,-2008(s0)
 5f0:	0017879b          	addiw	a5,a5,1
 5f4:	03079793          	slli	a5,a5,0x30
 5f8:	0307d793          	srli	a5,a5,0x30
 5fc:	82f41423          	sh	a5,-2008(s0)
 600:	e89ff06f          	j	488 <.L36>

0000000000000604 <.L26>:
 604:	000097b7          	lui	a5,0x9
 608:	a0278793          	addi	a5,a5,-1534 # 8a02 <.LLST3+0x2c54>
 60c:	50fa8063          	beq	s5,a5,b0c <.L30>
 610:	0000f7b7          	lui	a5,0xf
 614:	9f578793          	addi	a5,a5,-1547 # e9f5 <.LLST3+0x8c47>
 618:	52fa9263          	bne	s5,a5,b3c <.L102>
 61c:	00000517          	auipc	a0,0x0
 620:	00050513          	mv	a0,a0
 624:	00000097          	auipc	ra,0x0
 628:	000080e7          	jalr	ra # 624 <.L26+0x20>
 62c:	00300993          	li	s3,3
 630:	df5ff06f          	j	424 <.L32>

0000000000000634 <.L61>:
 634:	00000413          	li	s0,0

0000000000000638 <.L29>:
 638:	00000097          	auipc	ra,0x0
 63c:	000080e7          	jalr	ra # 638 <.L29>
 640:	00001737          	lui	a4,0x1
 644:	fffff7b7          	lui	a5,0xfffff
 648:	85070713          	addi	a4,a4,-1968 # 850 <.L46+0x34>
 64c:	00f70733          	add	a4,a4,a5
 650:	002707b3          	add	a5,a4,sp
 654:	7e87e583          	lwu	a1,2024(a5) # fffffffffffff7e8 <.LLST3+0xffffffffffff9a3a>
 658:	00850a3b          	addw	s4,a0,s0
 65c:	00000517          	auipc	a0,0x0
 660:	00050513          	mv	a0,a0
 664:	00f13023          	sd	a5,0(sp)
 668:	00000097          	auipc	ra,0x0
 66c:	000080e7          	jalr	ra # 668 <.L29+0x30>
 670:	00090593          	mv	a1,s2
 674:	00000517          	auipc	a0,0x0
 678:	00050513          	mv	a0,a0
 67c:	00000097          	auipc	ra,0x0
 680:	000080e7          	jalr	ra # 67c <.L29+0x44>
 684:	00090513          	mv	a0,s2
 688:	00000097          	auipc	ra,0x0
 68c:	000080e7          	jalr	ra # 688 <.L29+0x50>
 690:	e20505d3          	fmv.x.d	a1,fa0
 694:	00000517          	auipc	a0,0x0
 698:	00050513          	mv	a0,a0
 69c:	030a1a13          	slli	s4,s4,0x30
 6a0:	00000097          	auipc	ra,0x0
 6a4:	000080e7          	jalr	ra # 6a0 <.L29+0x68>
 6a8:	00090513          	mv	a0,s2
 6ac:	00000097          	auipc	ra,0x0
 6b0:	000080e7          	jalr	ra # 6ac <.L29+0x74>
 6b4:	f20007d3          	fmv.d.x	fa5,zero
 6b8:	030a5a13          	srli	s4,s4,0x30
 6bc:	a2a797d3          	flt.d	a5,fa5,fa0
 6c0:	02078e63          	beqz	a5,6fc <.L39>
 6c4:	00013783          	ld	a5,0(sp)
 6c8:	00090513          	mv	a0,s2
 6cc:	7ec7a703          	lw	a4,2028(a5)
 6d0:	0004a783          	lw	a5,0(s1)
 6d4:	02e787bb          	mulw	a5,a5,a4
 6d8:	d2178453          	fcvt.d.wu	fs0,a5
 6dc:	00000097          	auipc	ra,0x0
 6e0:	000080e7          	jalr	ra # 6dc <.L29+0xa4>
 6e4:	00000517          	auipc	a0,0x0
 6e8:	00050513          	mv	a0,a0
 6ec:	1aa477d3          	fdiv.d	fa5,fs0,fa0
 6f0:	e20785d3          	fmv.x.d	a1,fa5
 6f4:	00000097          	auipc	ra,0x0
 6f8:	000080e7          	jalr	ra # 6f4 <.L29+0xbc>

00000000000006fc <.L39>:
 6fc:	00090513          	mv	a0,s2
 700:	00000097          	auipc	ra,0x0
 704:	000080e7          	jalr	ra # 700 <.L39+0x4>
 708:	00000797          	auipc	a5,0x0
 70c:	0007b787          	fld	fa5,0(a5) # 708 <.L39+0xc>
 710:	a2f517d3          	flt.d	a5,fa0,fa5
 714:	32079063          	bnez	a5,a34 <.L41>

0000000000000718 <.L103>:
 718:	00001737          	lui	a4,0x1
 71c:	fffff7b7          	lui	a5,0xfffff
 720:	85070713          	addi	a4,a4,-1968 # 850 <.L46+0x34>
 724:	00f70733          	add	a4,a4,a5
 728:	002707b3          	add	a5,a4,sp
 72c:	0004e583          	lwu	a1,0(s1)
 730:	00f13023          	sd	a5,0(sp)
 734:	7ec7e783          	lwu	a5,2028(a5) # fffffffffffff7ec <.LLST3+0xffffffffffff9a3e>
 738:	00000517          	auipc	a0,0x0
 73c:	00050513          	mv	a0,a0
 740:	010a1a1b          	slliw	s4,s4,0x10
 744:	02f585b3          	mul	a1,a1,a5
 748:	410a5a1b          	sraiw	s4,s4,0x10
 74c:	00000097          	auipc	ra,0x0
 750:	000080e7          	jalr	ra # 74c <.L103+0x34>
 754:	00000597          	auipc	a1,0x0
 758:	00058593          	mv	a1,a1
 75c:	00000517          	auipc	a0,0x0
 760:	00050513          	mv	a0,a0
 764:	00000097          	auipc	ra,0x0
 768:	000080e7          	jalr	ra # 764 <.L103+0x4c>
 76c:	00000597          	auipc	a1,0x0
 770:	00058593          	mv	a1,a1
 774:	00000517          	auipc	a0,0x0
 778:	00050513          	mv	a0,a0
 77c:	00000097          	auipc	ra,0x0
 780:	000080e7          	jalr	ra # 77c <.L103+0x64>
 784:	00000597          	auipc	a1,0x0
 788:	00058593          	mv	a1,a1
 78c:	00000517          	auipc	a0,0x0
 790:	00050513          	mv	a0,a0
 794:	00000097          	auipc	ra,0x0
 798:	000080e7          	jalr	ra # 794 <.L103+0x7c>
 79c:	000a8593          	mv	a1,s5
 7a0:	00000517          	auipc	a0,0x0
 7a4:	00050513          	mv	a0,a0
 7a8:	00000097          	auipc	ra,0x0
 7ac:	000080e7          	jalr	ra # 7a8 <.L103+0x90>
 7b0:	00013783          	ld	a5,0(sp)
 7b4:	7f07a783          	lw	a5,2032(a5)
 7b8:	0017f793          	andi	a5,a5,1
 7bc:	06078063          	beqz	a5,81c <.L46>
 7c0:	0004a783          	lw	a5,0(s1)
 7c4:	04078c63          	beqz	a5,81c <.L46>
 7c8:	00000413          	li	s0,0
 7cc:	00000593          	li	a1,0
 7d0:	00001b37          	lui	s6,0x1
 7d4:	00000a97          	auipc	s5,0x0
 7d8:	000a8a93          	mv	s5,s5

00000000000007dc <.L47>:
 7dc:	00359793          	slli	a5,a1,0x3
 7e0:	00013703          	ld	a4,0(sp)
 7e4:	40b787b3          	sub	a5,a5,a1
 7e8:	00479793          	slli	a5,a5,0x4
 7ec:	00f707b3          	add	a5,a4,a5
 7f0:	00fb07b3          	add	a5,s6,a5
 7f4:	8227d603          	lhu	a2,-2014(a5)
 7f8:	000a8513          	mv	a0,s5
 7fc:	0014041b          	addiw	s0,s0,1
 800:	00000097          	auipc	ra,0x0
 804:	000080e7          	jalr	ra # 800 <.L47+0x24>
 808:	0004a783          	lw	a5,0(s1)
 80c:	03041413          	slli	s0,s0,0x30
 810:	03045413          	srli	s0,s0,0x30
 814:	0004059b          	sext.w	a1,s0
 818:	fcf462e3          	bltu	s0,a5,7dc <.L47>

000000000000081c <.L46>:
 81c:	00001737          	lui	a4,0x1
 820:	fffff7b7          	lui	a5,0xfffff
 824:	85070713          	addi	a4,a4,-1968 # 850 <.L46+0x34>
 828:	00f70733          	add	a4,a4,a5
 82c:	002707b3          	add	a5,a4,sp
 830:	00f13023          	sd	a5,0(sp)
 834:	7f07a783          	lw	a5,2032(a5) # fffffffffffff7f0 <.LLST3+0xffffffffffff9a42>
 838:	0027f713          	andi	a4,a5,2
 83c:	06070063          	beqz	a4,89c <.L45>
 840:	0004a703          	lw	a4,0(s1)
 844:	2a070263          	beqz	a4,ae8 <.L50>
 848:	00000413          	li	s0,0
 84c:	00000593          	li	a1,0
 850:	00001b37          	lui	s6,0x1
 854:	00000a97          	auipc	s5,0x0
 858:	000a8a93          	mv	s5,s5

000000000000085c <.L51>:
 85c:	00359793          	slli	a5,a1,0x3
 860:	00013703          	ld	a4,0(sp)
 864:	40b787b3          	sub	a5,a5,a1
 868:	00479793          	slli	a5,a5,0x4
 86c:	00f707b3          	add	a5,a4,a5
 870:	00fb07b3          	add	a5,s6,a5
 874:	8247d603          	lhu	a2,-2012(a5)
 878:	000a8513          	mv	a0,s5
 87c:	0014041b          	addiw	s0,s0,1
 880:	00000097          	auipc	ra,0x0
 884:	000080e7          	jalr	ra # 880 <.L51+0x24>
 888:	0004a783          	lw	a5,0(s1)
 88c:	03041413          	slli	s0,s0,0x30
 890:	03045413          	srli	s0,s0,0x30
 894:	0004059b          	sext.w	a1,s0
 898:	fcf462e3          	bltu	s0,a5,85c <.L51>

000000000000089c <.L45>:
 89c:	00001737          	lui	a4,0x1
 8a0:	fffff7b7          	lui	a5,0xfffff
 8a4:	85070713          	addi	a4,a4,-1968 # 850 <.L46+0x34>
 8a8:	00f70733          	add	a4,a4,a5
 8ac:	002707b3          	add	a5,a4,sp
 8b0:	00f13023          	sd	a5,0(sp)
 8b4:	7f07a783          	lw	a5,2032(a5) # fffffffffffff7f0 <.LLST3+0xffffffffffff9a42>
 8b8:	0004a703          	lw	a4,0(s1)
 8bc:	0047f793          	andi	a5,a5,4
 8c0:	04078e63          	beqz	a5,91c <.L49>
 8c4:	00000413          	li	s0,0
 8c8:	00000593          	li	a1,0
 8cc:	00001b37          	lui	s6,0x1
 8d0:	00000a97          	auipc	s5,0x0
 8d4:	000a8a93          	mv	s5,s5
 8d8:	0a070c63          	beqz	a4,990 <.L53>

00000000000008dc <.L54>:
 8dc:	00359793          	slli	a5,a1,0x3
 8e0:	00013703          	ld	a4,0(sp)
 8e4:	40b787b3          	sub	a5,a5,a1
 8e8:	00479793          	slli	a5,a5,0x4
 8ec:	00f707b3          	add	a5,a4,a5
 8f0:	00fb07b3          	add	a5,s6,a5
 8f4:	8267d603          	lhu	a2,-2010(a5)
 8f8:	000a8513          	mv	a0,s5
 8fc:	0014041b          	addiw	s0,s0,1
 900:	00000097          	auipc	ra,0x0
 904:	000080e7          	jalr	ra # 900 <.L54+0x24>
 908:	0004a783          	lw	a5,0(s1)
 90c:	03041413          	slli	s0,s0,0x30
 910:	03045413          	srli	s0,s0,0x30
 914:	0004059b          	sext.w	a1,s0
 918:	fcf462e3          	bltu	s0,a5,8dc <.L54>

000000000000091c <.L49>:
 91c:	0004a783          	lw	a5,0(s1)
 920:	00000413          	li	s0,0
 924:	00000593          	li	a1,0
 928:	06078463          	beqz	a5,990 <.L53>
 92c:	00001737          	lui	a4,0x1
 930:	fffff7b7          	lui	a5,0xfffff
 934:	85070713          	addi	a4,a4,-1968 # 850 <.L46+0x34>
 938:	00f70733          	add	a4,a4,a5
 93c:	002707b3          	add	a5,a4,sp
 940:	00f13023          	sd	a5,0(sp)
 944:	00001b37          	lui	s6,0x1
 948:	00000a97          	auipc	s5,0x0
 94c:	000a8a93          	mv	s5,s5

0000000000000950 <.L52>:
 950:	00359793          	slli	a5,a1,0x3
 954:	00013703          	ld	a4,0(sp)
 958:	40b787b3          	sub	a5,a5,a1
 95c:	00479793          	slli	a5,a5,0x4
 960:	00f707b3          	add	a5,a4,a5
 964:	00fb07b3          	add	a5,s6,a5
 968:	8207d603          	lhu	a2,-2016(a5) # ffffffffffffe820 <.LLST3+0xffffffffffff8a72>
 96c:	000a8513          	mv	a0,s5
 970:	0014041b          	addiw	s0,s0,1
 974:	00000097          	auipc	ra,0x0
 978:	000080e7          	jalr	ra # 974 <.L52+0x24>
 97c:	0004a783          	lw	a5,0(s1)
 980:	03041413          	slli	s0,s0,0x30
 984:	03045413          	srli	s0,s0,0x30
 988:	0004059b          	sext.w	a1,s0
 98c:	fcf462e3          	bltu	s0,a5,950 <.L52>

0000000000000990 <.L53>:
 990:	0a0a0e63          	beqz	s4,a4c <.L108>
 994:	09404263          	bgtz	s4,a18 <.L58>
 998:	00000517          	auipc	a0,0x0
 99c:	00050513          	mv	a0,a0
 9a0:	00000097          	auipc	ra,0x0
 9a4:	000080e7          	jalr	ra # 9a0 <.L53+0x10>

00000000000009a8 <.L57>:
 9a8:	07a10513          	addi	a0,sp,122
 9ac:	00000097          	auipc	ra,0x0
 9b0:	000080e7          	jalr	ra # 9ac <.L57+0x4>
 9b4:	0e010113          	addi	sp,sp,224
 9b8:	7e813083          	ld	ra,2024(sp)
 9bc:	7e013403          	ld	s0,2016(sp)
 9c0:	7d813483          	ld	s1,2008(sp)
 9c4:	7d013903          	ld	s2,2000(sp)
 9c8:	7c813983          	ld	s3,1992(sp)
 9cc:	7c013a03          	ld	s4,1984(sp)
 9d0:	7b813a83          	ld	s5,1976(sp)
 9d4:	7b013b03          	ld	s6,1968(sp)
 9d8:	7a813b83          	ld	s7,1960(sp)
 9dc:	7a013c03          	ld	s8,1952(sp)
 9e0:	79813c83          	ld	s9,1944(sp)
 9e4:	79013d03          	ld	s10,1936(sp)
 9e8:	78813d83          	ld	s11,1928(sp)
 9ec:	77813407          	fld	fs0,1912(sp)
 9f0:	00000513          	li	a0,0
 9f4:	7f010113          	addi	sp,sp,2032
 9f8:	00008067          	ret

00000000000009fc <.L104>:
 9fc:	02658733          	mul	a4,a1,t1
 a00:	0015859b          	addiw	a1,a1,1 # 785 <.L103+0x6d>
 a04:	03059593          	slli	a1,a1,0x30
 a08:	0305d593          	srli	a1,a1,0x30
 a0c:	00e60733          	add	a4,a2,a4
 a10:	00e7b823          	sd	a4,16(a5)
 a14:	ff4ff06f          	j	208 <.L17>

0000000000000a18 <.L58>:
 a18:	00000517          	auipc	a0,0x0
 a1c:	00050513          	mv	a0,a0
 a20:	00000097          	auipc	ra,0x0
 a24:	000080e7          	jalr	ra # a20 <.L58+0x8>
 a28:	f81ff06f          	j	9a8 <.L57>

0000000000000a2c <.L106>:
 a2c:	00100713          	li	a4,1
 a30:	8edff06f          	j	31c <.L24>

0000000000000a34 <.L41>:
 a34:	00000517          	auipc	a0,0x0
 a38:	00050513          	mv	a0,a0
 a3c:	00000097          	auipc	ra,0x0
 a40:	000080e7          	jalr	ra # a3c <.L41+0x8>
 a44:	001a0a1b          	addiw	s4,s4,1
 a48:	cd1ff06f          	j	718 <.L103>

0000000000000a4c <.L108>:
 a4c:	00000517          	auipc	a0,0x0
 a50:	00050513          	mv	a0,a0
 a54:	00000097          	auipc	ra,0x0
 a58:	000080e7          	jalr	ra # a54 <.L108+0x8>
 a5c:	00300793          	li	a5,3
 a60:	f4f994e3          	bne	s3,a5,9a8 <.L57>
 a64:	00001737          	lui	a4,0x1
 a68:	fffff7b7          	lui	a5,0xfffff
 a6c:	85070713          	addi	a4,a4,-1968 # 850 <.L46+0x34>
 a70:	00f70733          	add	a4,a4,a5
 a74:	002707b3          	add	a5,a4,sp
 a78:	7ec7a703          	lw	a4,2028(a5) # fffffffffffff7ec <.LLST3+0xffffffffffff9a3e>
 a7c:	00f13023          	sd	a5,0(sp)
 a80:	0004a783          	lw	a5,0(s1)
 a84:	00090513          	mv	a0,s2
 a88:	02e787bb          	mulw	a5,a5,a4
 a8c:	d2178453          	fcvt.d.wu	fs0,a5
 a90:	00000097          	auipc	ra,0x0
 a94:	000080e7          	jalr	ra # a90 <.L108+0x44>
 a98:	00000697          	auipc	a3,0x0
 a9c:	00068693          	mv	a3,a3
 aa0:	1aa477d3          	fdiv.d	fa5,fs0,fa0
 aa4:	00000617          	auipc	a2,0x0
 aa8:	00060613          	mv	a2,a2
 aac:	00000517          	auipc	a0,0x0
 ab0:	00050513          	mv	a0,a0
 ab4:	e20785d3          	fmv.x.d	a1,fa5
 ab8:	00000097          	auipc	ra,0x0
 abc:	000080e7          	jalr	ra # ab8 <.L108+0x6c>
 ac0:	00000597          	auipc	a1,0x0
 ac4:	00058593          	mv	a1,a1
 ac8:	00000517          	auipc	a0,0x0
 acc:	00050513          	mv	a0,a0
 ad0:	00000097          	auipc	ra,0x0
 ad4:	000080e7          	jalr	ra # ad0 <.L108+0x84>
 ad8:	00a00513          	li	a0,10
 adc:	00000097          	auipc	ra,0x0
 ae0:	000080e7          	jalr	ra # adc <.L108+0x90>
 ae4:	ec5ff06f          	j	9a8 <.L57>

0000000000000ae8 <.L50>:
 ae8:	0047f793          	andi	a5,a5,4
 aec:	e20788e3          	beqz	a5,91c <.L49>
 af0:	ea1ff06f          	j	990 <.L53>

0000000000000af4 <.L27>:
 af4:	00000517          	auipc	a0,0x0
 af8:	00050513          	mv	a0,a0
 afc:	00000097          	auipc	ra,0x0
 b00:	000080e7          	jalr	ra # afc <.L27+0x8>
 b04:	00400993          	li	s3,4
 b08:	91dff06f          	j	424 <.L32>

0000000000000b0c <.L30>:
 b0c:	00000517          	auipc	a0,0x0
 b10:	00050513          	mv	a0,a0
 b14:	00000097          	auipc	ra,0x0
 b18:	000080e7          	jalr	ra # b14 <.L30+0x8>
 b1c:	00000993          	li	s3,0
 b20:	905ff06f          	j	424 <.L32>

0000000000000b24 <.L25>:
 b24:	00000517          	auipc	a0,0x0
 b28:	00050513          	mv	a0,a0
 b2c:	00000097          	auipc	ra,0x0
 b30:	000080e7          	jalr	ra # b2c <.L25+0x8>
 b34:	00100993          	li	s3,1
 b38:	8edff06f          	j	424 <.L32>

0000000000000b3c <.L102>:
 b3c:	00010437          	lui	s0,0x10
 b40:	fff40413          	addi	s0,s0,-1 # ffff <.LLST3+0xa251>
 b44:	fff00993          	li	s3,-1
 b48:	00000497          	auipc	s1,0x0
 b4c:	00048493          	mv	s1,s1
 b50:	ae9ff06f          	j	638 <.L29>

Дизассемблирование раздела .text.clock:

0000000000000000 <clock>:
   0:	7179                	addi	sp,sp,-48
   2:	858a                	mv	a1,sp
   4:	00000517          	auipc	a0,0x0
   8:	00053503          	ld	a0,0(a0) # 4 <clock+0x4>
   c:	f406                	sd	ra,40(sp)
   e:	00000097          	auipc	ra,0x0
  12:	000080e7          	jalr	ra # e <clock+0xe>
  16:	57fd                	li	a5,-1
  18:	00f50963          	beq	a0,a5,2a <.L1>
  1c:	67a2                	ld	a5,8(sp)
  1e:	6502                	ld	a0,0(sp)
  20:	953e                	add	a0,a0,a5
  22:	67c2                	ld	a5,16(sp)
  24:	953e                	add	a0,a0,a5
  26:	67e2                	ld	a5,24(sp)
  28:	953e                	add	a0,a0,a5

000000000000002a <.L1>:
  2a:	70a2                	ld	ra,40(sp)
  2c:	6145                	addi	sp,sp,48
  2e:	8082                	ret

Дизассемблирование раздела .text.exit:

0000000000000000 <exit>:
   0:	1141                	addi	sp,sp,-16
   2:	4581                	li	a1,0
   4:	e022                	sd	s0,0(sp)
   6:	e406                	sd	ra,8(sp)
   8:	842a                	mv	s0,a0
   a:	00000097          	auipc	ra,0x0
   e:	000080e7          	jalr	ra # a <exit+0xa>
  12:	00000517          	auipc	a0,0x0
  16:	00053503          	ld	a0,0(a0) # 12 <exit+0x12>
  1a:	6d3c                	ld	a5,88(a0)
  1c:	c391                	beqz	a5,20 <.L2>
  1e:	9782                	jalr	a5

0000000000000020 <.L2>:
  20:	8522                	mv	a0,s0
  22:	00000097          	auipc	ra,0x0
  26:	000080e7          	jalr	ra # 22 <.L2+0x2>

Дизассемблирование раздела .text.__libc_init_array:

0000000000000000 <__libc_init_array>:
   0:	1101                	addi	sp,sp,-32
   2:	e822                	sd	s0,16(sp)
   4:	e04a                	sd	s2,0(sp)
   6:	00000797          	auipc	a5,0x0
   a:	00078793          	mv	a5,a5
   e:	00000417          	auipc	s0,0x0
  12:	00040413          	mv	s0,s0
  16:	ec06                	sd	ra,24(sp)
  18:	e426                	sd	s1,8(sp)
  1a:	40878933          	sub	s2,a5,s0
  1e:	00878b63          	beq	a5,s0,34 <.L2>
  22:	40395913          	srai	s2,s2,0x3
  26:	4481                	li	s1,0

0000000000000028 <.L3>:
  28:	601c                	ld	a5,0(s0)
  2a:	0485                	addi	s1,s1,1 # b49 <.LLRL41+0x1>
  2c:	0421                	addi	s0,s0,8 # 16 <__libc_init_array+0x16>
  2e:	9782                	jalr	a5
  30:	ff24ece3          	bltu	s1,s2,28 <.L3>

0000000000000034 <.L2>:
  34:	00000797          	auipc	a5,0x0
  38:	00078793          	mv	a5,a5
  3c:	00000417          	auipc	s0,0x0
  40:	00040413          	mv	s0,s0
  44:	40878933          	sub	s2,a5,s0
  48:	40395913          	srai	s2,s2,0x3
  4c:	00878963          	beq	a5,s0,5e <.L1>
  50:	4481                	li	s1,0

0000000000000052 <.L5>:
  52:	601c                	ld	a5,0(s0)
  54:	0485                	addi	s1,s1,1
  56:	0421                	addi	s0,s0,8 # 44 <.L2+0x10>
  58:	9782                	jalr	a5
  5a:	ff24ece3          	bltu	s1,s2,52 <.L5>

000000000000005e <.L1>:
  5e:	60e2                	ld	ra,24(sp)
  60:	6442                	ld	s0,16(sp)
  62:	64a2                	ld	s1,8(sp)
  64:	6902                	ld	s2,0(sp)
  66:	6105                	addi	sp,sp,32
  68:	8082                	ret

Дизассемблирование раздела .text._printf_r:

0000000000000000 <_printf_r>:
   0:	715d                	addi	sp,sp,-80
   2:	f032                	sd	a2,32(sp)
   4:	f436                	sd	a3,40(sp)
   6:	f83a                	sd	a4,48(sp)
   8:	fc3e                	sd	a5,56(sp)
   a:	e0c2                	sd	a6,64(sp)
   c:	e4c6                	sd	a7,72(sp)
   e:	862e                	mv	a2,a1
  10:	690c                	ld	a1,16(a0)
  12:	1014                	addi	a3,sp,32
  14:	ec06                	sd	ra,24(sp)
  16:	e436                	sd	a3,8(sp)
  18:	00000097          	auipc	ra,0x0
  1c:	000080e7          	jalr	ra # 18 <_printf_r+0x18>
  20:	60e2                	ld	ra,24(sp)
  22:	6161                	addi	sp,sp,80
  24:	8082                	ret

Дизассемблирование раздела .text.printf:

0000000000000000 <printf>:
   0:	711d                	addi	sp,sp,-96
   2:	f832                	sd	a2,48(sp)
   4:	fc36                	sd	a3,56(sp)
   6:	00000317          	auipc	t1,0x0
   a:	00033303          	ld	t1,0(t1) # 6 <printf+0x6>
   e:	f42e                	sd	a1,40(sp)
  10:	e0ba                	sd	a4,64(sp)
  12:	e4be                	sd	a5,72(sp)
  14:	e8c2                	sd	a6,80(sp)
  16:	ecc6                	sd	a7,88(sp)
  18:	01033583          	ld	a1,16(t1)
  1c:	1034                	addi	a3,sp,40
  1e:	862a                	mv	a2,a0
  20:	851a                	mv	a0,t1
  22:	ec06                	sd	ra,24(sp)
  24:	e436                	sd	a3,8(sp)
  26:	00000097          	auipc	ra,0x0
  2a:	000080e7          	jalr	ra # 26 <printf+0x26>
  2e:	60e2                	ld	ra,24(sp)
  30:	6125                	addi	sp,sp,96
  32:	8082                	ret

Дизассемблирование раздела .text._putchar_r:

0000000000000000 <_putchar_r>:
   0:	6910                	ld	a2,16(a0)
   2:	00000317          	auipc	t1,0x0
   6:	00030067          	jr	t1 # 2 <_putchar_r+0x2>

Дизассемблирование раздела .text.putchar:

0000000000000000 <putchar>:
   0:	00000797          	auipc	a5,0x0
   4:	0007b783          	ld	a5,0(a5) # 0 <putchar>
   8:	6b90                	ld	a2,16(a5)
   a:	85aa                	mv	a1,a0
   c:	853e                	mv	a0,a5
   e:	00000317          	auipc	t1,0x0
  12:	00030067          	jr	t1 # e <putchar+0xe>

Дизассемблирование раздела .text._putc_r:

0000000000000000 <_putc_r>:
   0:	1101                	addi	sp,sp,-32
   2:	e84a                	sd	s2,16(sp)
   4:	ec06                	sd	ra,24(sp)
   6:	892a                	mv	s2,a0
   8:	c119                	beqz	a0,e <.L2>
   a:	493c                	lw	a5,80(a0)
   c:	cb9d                	beqz	a5,42 <.L13>

000000000000000e <.L2>:
   e:	465c                	lw	a5,12(a2)
  10:	fff7871b          	addiw	a4,a5,-1
  14:	c658                	sw	a4,12(a2)
  16:	00075a63          	bgez	a4,2a <.L6>
  1a:	561c                	lw	a5,40(a2)
  1c:	02f74c63          	blt	a4,a5,54 <.L5>
  20:	0ff5f793          	zext.b	a5,a1
  24:	4729                	li	a4,10
  26:	02e78763          	beq	a5,a4,54 <.L5>

000000000000002a <.L6>:
  2a:	621c                	ld	a5,0(a2)
  2c:	0ff5f513          	zext.b	a0,a1
  30:	00178713          	addi	a4,a5,1
  34:	e218                	sd	a4,0(a2)
  36:	00b78023          	sb	a1,0(a5)
  3a:	60e2                	ld	ra,24(sp)
  3c:	6942                	ld	s2,16(sp)
  3e:	6105                	addi	sp,sp,32
  40:	8082                	ret

0000000000000042 <.L13>:
  42:	e432                	sd	a2,8(sp)
  44:	e02e                	sd	a1,0(sp)
  46:	00000097          	auipc	ra,0x0
  4a:	000080e7          	jalr	ra # 46 <.L13+0x4>
  4e:	6622                	ld	a2,8(sp)
  50:	6582                	ld	a1,0(sp)
  52:	bf75                	j	e <.L2>

0000000000000054 <.L5>:
  54:	60e2                	ld	ra,24(sp)
  56:	854a                	mv	a0,s2
  58:	6942                	ld	s2,16(sp)
  5a:	6105                	addi	sp,sp,32
  5c:	00000317          	auipc	t1,0x0
  60:	00030067          	jr	t1 # 5c <.L5+0x8>

Дизассемблирование раздела .text.putc:

0000000000000000 <putc>:
   0:	1101                	addi	sp,sp,-32
   2:	e822                	sd	s0,16(sp)
   4:	e426                	sd	s1,8(sp)
   6:	e04a                	sd	s2,0(sp)
   8:	ec06                	sd	ra,24(sp)
   a:	00000917          	auipc	s2,0x0
   e:	00093903          	ld	s2,0(s2) # a <putc+0xa>
  12:	84aa                	mv	s1,a0
  14:	842e                	mv	s0,a1
  16:	00090563          	beqz	s2,20 <.L15>
  1a:	05092783          	lw	a5,80(s2)
  1e:	cf8d                	beqz	a5,58 <.L25>

0000000000000020 <.L15>:
  20:	445c                	lw	a5,12(s0)
  22:	fff7871b          	addiw	a4,a5,-1
  26:	c458                	sw	a4,12(s0)
  28:	00075a63          	bgez	a4,3c <.L19>
  2c:	541c                	lw	a5,40(s0)
  2e:	02f74b63          	blt	a4,a5,64 <.L18>
  32:	0ff4f793          	zext.b	a5,s1
  36:	4729                	li	a4,10
  38:	02e78663          	beq	a5,a4,64 <.L18>

000000000000003c <.L19>:
  3c:	601c                	ld	a5,0(s0)
  3e:	0ff4f513          	zext.b	a0,s1
